
obj/main.elf:     file format elf32-avr


Disassembly of section .text:

00000000 <__vectors>:
   0:	0c 94 34 00 	jmp	0x68	; 0x68 <__ctors_end>
   4:	0c 94 46 00 	jmp	0x8c	; 0x8c <__bad_interrupt>
   8:	0c 94 46 00 	jmp	0x8c	; 0x8c <__bad_interrupt>
   c:	0c 94 46 00 	jmp	0x8c	; 0x8c <__bad_interrupt>
  10:	0c 94 46 00 	jmp	0x8c	; 0x8c <__bad_interrupt>
  14:	0c 94 46 00 	jmp	0x8c	; 0x8c <__bad_interrupt>
  18:	0c 94 46 00 	jmp	0x8c	; 0x8c <__bad_interrupt>
  1c:	0c 94 46 00 	jmp	0x8c	; 0x8c <__bad_interrupt>
  20:	0c 94 46 00 	jmp	0x8c	; 0x8c <__bad_interrupt>
  24:	0c 94 46 00 	jmp	0x8c	; 0x8c <__bad_interrupt>
  28:	0c 94 46 00 	jmp	0x8c	; 0x8c <__bad_interrupt>
  2c:	0c 94 be 00 	jmp	0x17c	; 0x17c <__vector_11>
  30:	0c 94 46 00 	jmp	0x8c	; 0x8c <__bad_interrupt>
  34:	0c 94 46 00 	jmp	0x8c	; 0x8c <__bad_interrupt>
  38:	0c 94 46 00 	jmp	0x8c	; 0x8c <__bad_interrupt>
  3c:	0c 94 46 00 	jmp	0x8c	; 0x8c <__bad_interrupt>
  40:	0c 94 46 00 	jmp	0x8c	; 0x8c <__bad_interrupt>
  44:	0c 94 46 00 	jmp	0x8c	; 0x8c <__bad_interrupt>
  48:	0c 94 46 00 	jmp	0x8c	; 0x8c <__bad_interrupt>
  4c:	0c 94 46 00 	jmp	0x8c	; 0x8c <__bad_interrupt>
  50:	0c 94 46 00 	jmp	0x8c	; 0x8c <__bad_interrupt>
  54:	0c 94 46 00 	jmp	0x8c	; 0x8c <__bad_interrupt>
  58:	0c 94 46 00 	jmp	0x8c	; 0x8c <__bad_interrupt>
  5c:	0c 94 46 00 	jmp	0x8c	; 0x8c <__bad_interrupt>
  60:	0c 94 46 00 	jmp	0x8c	; 0x8c <__bad_interrupt>
  64:	0c 94 46 00 	jmp	0x8c	; 0x8c <__bad_interrupt>

00000068 <__ctors_end>:
  68:	11 24       	eor	r1, r1
  6a:	1f be       	out	0x3f, r1	; 63
  6c:	cf ef       	ldi	r28, 0xFF	; 255
  6e:	d8 e0       	ldi	r29, 0x08	; 8
  70:	de bf       	out	0x3e, r29	; 62
  72:	cd bf       	out	0x3d, r28	; 61

00000074 <__do_clear_bss>:
  74:	21 e0       	ldi	r18, 0x01	; 1

00000076 <.Loc.1>:
  76:	a0 e0       	ldi	r26, 0x00	; 0

00000078 <.Loc.2>:
  78:	b1 e0       	ldi	r27, 0x01	; 1

0000007a <.Loc.3>:
  7a:	01 c0       	rjmp	.+2      	; 0x7e <.Loc.5>

0000007c <.Loc.4>:
  7c:	1d 92       	st	X+, r1

0000007e <.Loc.5>:
  7e:	ab 30       	cpi	r26, 0x0B	; 11

00000080 <.Loc.6>:
  80:	b2 07       	cpc	r27, r18

00000082 <.Loc.7>:
  82:	e1 f7       	brne	.-8      	; 0x7c <.Loc.4>

00000084 <L0^A>:
  84:	0e 94 c1 00 	call	0x182	; 0x182 <main>
  88:	0c 94 5d 04 	jmp	0x8ba	; 0x8ba <_exit>

0000008c <__bad_interrupt>:
  8c:	0c 94 00 00 	jmp	0	; 0x0 <__vectors>

00000090 <initialize>:
  90:	84 b1       	in	r24, 0x04	; 4
  92:	8f 63       	ori	r24, 0x3F	; 63
  94:	84 b9       	out	0x04, r24	; 4
  96:	87 b1       	in	r24, 0x07	; 7
  98:	8f 60       	ori	r24, 0x0F	; 15
  9a:	87 b9       	out	0x07, r24	; 7
  9c:	53 98       	cbi	0x0a, 3	; 10
  9e:	e1 e8       	ldi	r30, 0x81	; 129
  a0:	f0 e0       	ldi	r31, 0x00	; 0
  a2:	80 81       	ld	r24, Z
  a4:	88 60       	ori	r24, 0x08	; 8
  a6:	80 83       	st	Z, r24
  a8:	80 81       	ld	r24, Z
  aa:	85 60       	ori	r24, 0x05	; 5
  ac:	80 83       	st	Z, r24
  ae:	88 e0       	ldi	r24, 0x08	; 8
  b0:	9d e3       	ldi	r25, 0x3D	; 61
  b2:	90 93 89 00 	sts	0x0089, r25	; 0x800089 <__TEXT_REGION_LENGTH__+0x7f8089>
  b6:	80 93 88 00 	sts	0x0088, r24	; 0x800088 <__TEXT_REGION_LENGTH__+0x7f8088>
  ba:	ef e6       	ldi	r30, 0x6F	; 111
  bc:	f0 e0       	ldi	r31, 0x00	; 0
  be:	80 81       	ld	r24, Z
  c0:	82 60       	ori	r24, 0x02	; 2
  c2:	80 83       	st	Z, r24
  c4:	3d 9a       	sbi	0x07, 5	; 7
  c6:	08 95       	ret

000000c8 <update_splittime>:
  c8:	fc 01       	movw	r30, r24
  ca:	db 01       	movw	r26, r22
  cc:	12 96       	adiw	r26, 0x02	; 2
  ce:	8c 91       	ld	r24, X
  d0:	12 97       	sbiw	r26, 0x02	; 2
  d2:	2a e0       	ldi	r18, 0x0A	; 10
  d4:	62 2f       	mov	r22, r18
  d6:	0e 94 0a 01 	call	0x214	; 0x214 <__divmodqi4>
  da:	85 83       	std	Z+5, r24	; 0x05
  dc:	94 83       	std	Z+4, r25	; 0x04
  de:	11 96       	adiw	r26, 0x01	; 1
  e0:	8c 91       	ld	r24, X
  e2:	11 97       	sbiw	r26, 0x01	; 1
  e4:	62 2f       	mov	r22, r18
  e6:	0e 94 0a 01 	call	0x214	; 0x214 <__divmodqi4>
  ea:	83 83       	std	Z+3, r24	; 0x03
  ec:	92 83       	std	Z+2, r25	; 0x02
  ee:	8c 91       	ld	r24, X
  f0:	62 2f       	mov	r22, r18
  f2:	0e 94 0a 01 	call	0x214	; 0x214 <__divmodqi4>
  f6:	81 83       	std	Z+1, r24	; 0x01
  f8:	90 83       	st	Z, r25
  fa:	08 95       	ret

000000fc <turn_off_digits>:
  fc:	15 b8       	out	0x05, r1	; 5
  fe:	08 95       	ret

00000100 <turn_on_digit>:
 100:	21 e0       	ldi	r18, 0x01	; 1
 102:	30 e0       	ldi	r19, 0x00	; 0
 104:	01 c0       	rjmp	.+2      	; 0x108 <.L2^B1>

00000106 <.L1^B1>:
 106:	22 0f       	add	r18, r18

00000108 <.L2^B1>:
 108:	8a 95       	dec	r24
 10a:	ea f7       	brpl	.-6      	; 0x106 <.L1^B1>
 10c:	25 b9       	out	0x05, r18	; 5
 10e:	8f e9       	ldi	r24, 0x9F	; 159
 110:	9f e0       	ldi	r25, 0x0F	; 15

00000112 <.L1^B2>:
 112:	01 97       	sbiw	r24, 0x01	; 1
 114:	f1 f7       	brne	.-4      	; 0x112 <.L1^B2>
 116:	00 c0       	rjmp	.+0      	; 0x118 <L0^A>

00000118 <L0^A>:
 118:	00 00       	nop
 11a:	15 b8       	out	0x05, r1	; 5
 11c:	08 95       	ret

0000011e <show_digit>:
 11e:	96 b1       	in	r25, 0x06	; 6
 120:	8f 70       	andi	r24, 0x0F	; 15
 122:	90 7f       	andi	r25, 0xF0	; 240
 124:	89 2b       	or	r24, r25
 126:	88 b9       	out	0x08, r24	; 8
 128:	08 95       	ret

0000012a <show_time>:
 12a:	cf 93       	push	r28
 12c:	df 93       	push	r29
 12e:	ec 01       	movw	r28, r24
 130:	88 81       	ld	r24, Y
 132:	0e 94 8f 00 	call	0x11e	; 0x11e <show_digit>
 136:	80 e0       	ldi	r24, 0x00	; 0
 138:	0e 94 80 00 	call	0x100	; 0x100 <turn_on_digit>
 13c:	89 81       	ldd	r24, Y+1	; 0x01
 13e:	0e 94 8f 00 	call	0x11e	; 0x11e <show_digit>
 142:	81 e0       	ldi	r24, 0x01	; 1
 144:	0e 94 80 00 	call	0x100	; 0x100 <turn_on_digit>
 148:	8a 81       	ldd	r24, Y+2	; 0x02
 14a:	0e 94 8f 00 	call	0x11e	; 0x11e <show_digit>
 14e:	82 e0       	ldi	r24, 0x02	; 2
 150:	0e 94 80 00 	call	0x100	; 0x100 <turn_on_digit>
 154:	8b 81       	ldd	r24, Y+3	; 0x03
 156:	0e 94 8f 00 	call	0x11e	; 0x11e <show_digit>
 15a:	83 e0       	ldi	r24, 0x03	; 3
 15c:	0e 94 80 00 	call	0x100	; 0x100 <turn_on_digit>
 160:	8c 81       	ldd	r24, Y+4	; 0x04
 162:	0e 94 8f 00 	call	0x11e	; 0x11e <show_digit>
 166:	84 e0       	ldi	r24, 0x04	; 4
 168:	0e 94 80 00 	call	0x100	; 0x100 <turn_on_digit>
 16c:	8d 81       	ldd	r24, Y+5	; 0x05
 16e:	0e 94 8f 00 	call	0x11e	; 0x11e <show_digit>
 172:	85 e0       	ldi	r24, 0x05	; 5
 174:	df 91       	pop	r29
 176:	cf 91       	pop	r28
 178:	0c 94 80 00 	jmp	0x100	; 0x100 <turn_on_digit>

0000017c <__vector_11>:
 17c:	0e 94 df 01 	call	0x3be	; 0x3be <system_tick>
 180:	18 95       	reti

00000182 <main>:
 182:	cf 93       	push	r28
 184:	df 93       	push	r29
 186:	cd b7       	in	r28, 0x3d	; 61
 188:	de b7       	in	r29, 0x3e	; 62
 18a:	6c 97       	sbiw	r28, 0x1c	; 28
 18c:	0f b6       	in	r0, 0x3f	; 63
 18e:	f8 94       	cli
 190:	de bf       	out	0x3e, r29	; 62
 192:	0f be       	out	0x3f, r0	; 63
 194:	cd bf       	out	0x3d, r28	; 61
 196:	19 8e       	std	Y+25, r1	; 0x19
 198:	1a 8e       	std	Y+26, r1	; 0x1a
 19a:	1b 8e       	std	Y+27, r1	; 0x1b
 19c:	1c 8e       	std	Y+28, r1	; 0x1c
 19e:	8c e0       	ldi	r24, 0x0C	; 12
 1a0:	fe 01       	movw	r30, r28
 1a2:	3d 96       	adiw	r30, 0x0d	; 13
 1a4:	df 01       	movw	r26, r30
 1a6:	98 2f       	mov	r25, r24

000001a8 <.L0^B1>:
 1a8:	1d 92       	st	X+, r1
 1aa:	9a 95       	dec	r25
 1ac:	e9 f7       	brne	.-6      	; 0x1a8 <.L0^B1>
 1ae:	91 e0       	ldi	r25, 0x01	; 1
 1b0:	98 8b       	std	Y+16, r25	; 0x10
 1b2:	2d e7       	ldi	r18, 0x7D	; 125
 1b4:	30 e0       	ldi	r19, 0x00	; 0
 1b6:	3c 8b       	std	Y+20, r19	; 0x14
 1b8:	2b 8b       	std	Y+19, r18	; 0x13
 1ba:	8e 01       	movw	r16, r28
 1bc:	0f 5f       	subi	r16, 0xFF	; 255
 1be:	1f 4f       	sbci	r17, 0xFF	; 255
 1c0:	d8 01       	movw	r26, r16

000001c2 <.L0^B2>:
 1c2:	01 90       	ld	r0, Z+
 1c4:	0d 92       	st	X+, r0
 1c6:	8a 95       	dec	r24
 1c8:	e1 f7       	brne	.-8      	; 0x1c2 <.L0^B2>
 1ca:	c8 01       	movw	r24, r16
 1cc:	0e 94 65 01 	call	0x2ca	; 0x2ca <mktime>
 1d0:	0e 94 ba 01 	call	0x374	; 0x374 <set_system_time>
 1d4:	80 e0       	ldi	r24, 0x00	; 0
 1d6:	90 e0       	ldi	r25, 0x00	; 0
 1d8:	0e 94 cc 01 	call	0x398	; 0x398 <time>
 1dc:	69 8f       	std	Y+25, r22	; 0x19
 1de:	7a 8f       	std	Y+26, r23	; 0x1a
 1e0:	8b 8f       	std	Y+27, r24	; 0x1b
 1e2:	9c 8f       	std	Y+28, r25	; 0x1c
 1e4:	0e 94 48 00 	call	0x90	; 0x90 <initialize>
 1e8:	78 94       	sei
 1ea:	88 e0       	ldi	r24, 0x08	; 8
 1ec:	f8 2e       	mov	r15, r24

000001ee <.L3>:
 1ee:	80 91 00 01 	lds	r24, 0x0100	; 0x800100 <heartbeat>
 1f2:	81 15       	cp	r24, r1
 1f4:	e1 f3       	breq	.-8      	; 0x1ee <.L3>
 1f6:	8b b1       	in	r24, 0x0b	; 11
 1f8:	8f 25       	eor	r24, r15
 1fa:	8b b9       	out	0x0b, r24	; 11
 1fc:	ce 01       	movw	r24, r28
 1fe:	49 96       	adiw	r24, 0x19	; 25
 200:	0e 94 cc 01 	call	0x398	; 0x398 <time>
 204:	b8 01       	movw	r22, r16
 206:	ce 01       	movw	r24, r28
 208:	49 96       	adiw	r24, 0x19	; 25
 20a:	0e 94 24 01 	call	0x248	; 0x248 <localtime_r>
 20e:	10 92 00 01 	sts	0x0100, r1	; 0x800100 <heartbeat>
 212:	ed cf       	rjmp	.-38     	; 0x1ee <.L3>

00000214 <__divmodqi4>:
 214:	87 fb       	bst	r24, 7

00000216 <.Loc.1>:
 216:	08 2e       	mov	r0, r24

00000218 <.Loc.2>:
 218:	06 26       	eor	r0, r22

0000021a <.Loc.3>:
 21a:	87 fd       	sbrc	r24, 7

0000021c <.Loc.4>:
 21c:	81 95       	neg	r24

0000021e <.Loc.5>:
 21e:	67 fd       	sbrc	r22, 7

00000220 <.Loc.6>:
 220:	61 95       	neg	r22

00000222 <.Loc.7>:
 222:	0e 94 18 01 	call	0x230	; 0x230 <__udivmodqi4>

00000226 <.Loc.8>:
 226:	0e f4       	brtc	.+2      	; 0x22a <__divmodqi4_1>

00000228 <.Loc.9>:
 228:	91 95       	neg	r25

0000022a <__divmodqi4_1>:
 22a:	07 fc       	sbrc	r0, 7

0000022c <.Loc.11>:
 22c:	81 95       	neg	r24

0000022e <__divmodqi4_exit>:
 22e:	08 95       	ret

00000230 <__udivmodqi4>:
 230:	99 27       	eor	r25, r25

00000232 <.Loc.1>:
 232:	78 e0       	ldi	r23, 0x08	; 8

00000234 <.Loc.2>:
 234:	88 0f       	add	r24, r24

00000236 <__udivmodqi4_loop>:
 236:	99 1f       	adc	r25, r25

00000238 <.Loc.4>:
 238:	96 17       	cp	r25, r22

0000023a <.Loc.5>:
 23a:	08 f0       	brcs	.+2      	; 0x23e <__udivmodqi4_ep>

0000023c <.Loc.6>:
 23c:	96 1b       	sub	r25, r22

0000023e <__udivmodqi4_ep>:
 23e:	88 1f       	adc	r24, r24

00000240 <.Loc.8>:
 240:	7a 95       	dec	r23

00000242 <.Loc.9>:
 242:	c9 f7       	brne	.-14     	; 0x236 <__udivmodqi4_loop>

00000244 <.Loc.10>:
 244:	80 95       	com	r24

00000246 <.Loc.11>:
 246:	08 95       	ret

00000248 <localtime_r>:
 248:	a4 e0       	ldi	r26, 0x04	; 4
 24a:	b0 e0       	ldi	r27, 0x00	; 0
 24c:	ea e2       	ldi	r30, 0x2A	; 42
 24e:	f1 e0       	ldi	r31, 0x01	; 1
 250:	0c 94 21 04 	jmp	0x842	; 0x842 <.Loc.10>

00000254 <.L1^B1>:
 254:	6c 01       	movw	r12, r24
 256:	7b 01       	movw	r14, r22
 258:	e0 91 09 01 	lds	r30, 0x0109	; 0x800109 <__dst_ptr>
 25c:	f0 91 0a 01 	lds	r31, 0x010A	; 0x80010a <__dst_ptr+0x1>
 260:	0f ef       	ldi	r16, 0xFF	; 255
 262:	1f ef       	ldi	r17, 0xFF	; 255
 264:	30 97       	sbiw	r30, 0x00	; 0
 266:	21 f0       	breq	.+8      	; 0x270 <.L2>
 268:	65 e0       	ldi	r22, 0x05	; 5
 26a:	71 e0       	ldi	r23, 0x01	; 1
 26c:	09 95       	icall
 26e:	8c 01       	movw	r16, r24

00000270 <.L2>:
 270:	f6 01       	movw	r30, r12
 272:	80 81       	ld	r24, Z
 274:	91 81       	ldd	r25, Z+1	; 0x01
 276:	a2 81       	ldd	r26, Z+2	; 0x02
 278:	b3 81       	ldd	r27, Z+3	; 0x03
 27a:	40 91 05 01 	lds	r20, 0x0105	; 0x800105 <__utc_offset>
 27e:	50 91 06 01 	lds	r21, 0x0106	; 0x800106 <__utc_offset+0x1>
 282:	60 91 07 01 	lds	r22, 0x0107	; 0x800107 <__utc_offset+0x2>
 286:	70 91 08 01 	lds	r23, 0x0108	; 0x800108 <__utc_offset+0x3>
 28a:	84 0f       	add	r24, r20
 28c:	95 1f       	adc	r25, r21
 28e:	a6 1f       	adc	r26, r22
 290:	b7 1f       	adc	r27, r23
 292:	10 16       	cp	r1, r16
 294:	11 06       	cpc	r1, r17
 296:	4c f4       	brge	.+18     	; 0x2aa <.L3>
 298:	a8 01       	movw	r20, r16
 29a:	01 2e       	mov	r0, r17
 29c:	00 0c       	add	r0, r0
 29e:	66 0b       	sbc	r22, r22
 2a0:	77 0b       	sbc	r23, r23
 2a2:	84 0f       	add	r24, r20
 2a4:	95 1f       	adc	r25, r21
 2a6:	a6 1f       	adc	r26, r22
 2a8:	b7 1f       	adc	r27, r23

000002aa <.L3>:
 2aa:	89 83       	std	Y+1, r24	; 0x01
 2ac:	9a 83       	std	Y+2, r25	; 0x02
 2ae:	ab 83       	std	Y+3, r26	; 0x03
 2b0:	bc 83       	std	Y+4, r27	; 0x04
 2b2:	b7 01       	movw	r22, r14
 2b4:	ce 01       	movw	r24, r28
 2b6:	01 96       	adiw	r24, 0x01	; 1
 2b8:	0e 94 fb 01 	call	0x3f6	; 0x3f6 <gmtime_r>
 2bc:	f7 01       	movw	r30, r14
 2be:	13 87       	std	Z+11, r17	; 0x0b
 2c0:	02 87       	std	Z+10, r16	; 0x0a
 2c2:	24 96       	adiw	r28, 0x04	; 4
 2c4:	e8 e0       	ldi	r30, 0x08	; 8
 2c6:	0c 94 3d 04 	jmp	0x87a	; 0x87a <.Loc.10>

000002ca <mktime>:
 2ca:	a4 e0       	ldi	r26, 0x04	; 4
 2cc:	b0 e0       	ldi	r27, 0x00	; 0
 2ce:	eb e6       	ldi	r30, 0x6B	; 107
 2d0:	f1 e0       	ldi	r31, 0x01	; 1
 2d2:	0c 94 23 04 	jmp	0x846	; 0x846 <.Loc.12>

000002d6 <.L1^B1>:
 2d6:	7c 01       	movw	r14, r24
 2d8:	0e 94 b3 02 	call	0x566	; 0x566 <mk_gmtime>
 2dc:	69 83       	std	Y+1, r22	; 0x01
 2de:	7a 83       	std	Y+2, r23	; 0x02
 2e0:	8b 83       	std	Y+3, r24	; 0x03
 2e2:	9c 83       	std	Y+4, r25	; 0x04
 2e4:	f7 01       	movw	r30, r14
 2e6:	02 85       	ldd	r16, Z+10	; 0x0a
 2e8:	13 85       	ldd	r17, Z+11	; 0x0b
 2ea:	17 ff       	sbrs	r17, 7
 2ec:	0f c0       	rjmp	.+30     	; 0x30c <.L2>
 2ee:	e0 91 09 01 	lds	r30, 0x0109	; 0x800109 <__dst_ptr>
 2f2:	f0 91 0a 01 	lds	r31, 0x010A	; 0x80010a <__dst_ptr+0x1>
 2f6:	30 97       	sbiw	r30, 0x00	; 0
 2f8:	e1 f0       	breq	.+56     	; 0x332 <.L3>
 2fa:	65 e0       	ldi	r22, 0x05	; 5
 2fc:	71 e0       	ldi	r23, 0x01	; 1
 2fe:	ce 01       	movw	r24, r28
 300:	01 96       	adiw	r24, 0x01	; 1
 302:	09 95       	icall
 304:	8c 01       	movw	r16, r24
 306:	f7 01       	movw	r30, r14
 308:	93 87       	std	Z+11, r25	; 0x0b
 30a:	82 87       	std	Z+10, r24	; 0x0a

0000030c <.L2>:
 30c:	10 16       	cp	r1, r16
 30e:	11 06       	cpc	r1, r17
 310:	84 f4       	brge	.+32     	; 0x332 <.L3>
 312:	01 2e       	mov	r0, r17
 314:	00 0c       	add	r0, r0
 316:	22 0b       	sbc	r18, r18
 318:	33 0b       	sbc	r19, r19
 31a:	49 81       	ldd	r20, Y+1	; 0x01
 31c:	5a 81       	ldd	r21, Y+2	; 0x02
 31e:	6b 81       	ldd	r22, Y+3	; 0x03
 320:	7c 81       	ldd	r23, Y+4	; 0x04
 322:	40 1b       	sub	r20, r16
 324:	51 0b       	sbc	r21, r17
 326:	62 0b       	sbc	r22, r18
 328:	73 0b       	sbc	r23, r19
 32a:	49 83       	std	Y+1, r20	; 0x01
 32c:	5a 83       	std	Y+2, r21	; 0x02
 32e:	6b 83       	std	Y+3, r22	; 0x03
 330:	7c 83       	std	Y+4, r23	; 0x04

00000332 <.L3>:
 332:	89 81       	ldd	r24, Y+1	; 0x01
 334:	9a 81       	ldd	r25, Y+2	; 0x02
 336:	ab 81       	ldd	r26, Y+3	; 0x03
 338:	bc 81       	ldd	r27, Y+4	; 0x04
 33a:	40 91 05 01 	lds	r20, 0x0105	; 0x800105 <__utc_offset>
 33e:	50 91 06 01 	lds	r21, 0x0106	; 0x800106 <__utc_offset+0x1>
 342:	60 91 07 01 	lds	r22, 0x0107	; 0x800107 <__utc_offset+0x2>
 346:	70 91 08 01 	lds	r23, 0x0108	; 0x800108 <__utc_offset+0x3>
 34a:	84 1b       	sub	r24, r20
 34c:	95 0b       	sbc	r25, r21
 34e:	a6 0b       	sbc	r26, r22
 350:	b7 0b       	sbc	r27, r23
 352:	89 83       	std	Y+1, r24	; 0x01
 354:	9a 83       	std	Y+2, r25	; 0x02
 356:	ab 83       	std	Y+3, r26	; 0x03
 358:	bc 83       	std	Y+4, r27	; 0x04
 35a:	b7 01       	movw	r22, r14
 35c:	ce 01       	movw	r24, r28
 35e:	01 96       	adiw	r24, 0x01	; 1
 360:	0e 94 24 01 	call	0x248	; 0x248 <localtime_r>
 364:	69 81       	ldd	r22, Y+1	; 0x01
 366:	7a 81       	ldd	r23, Y+2	; 0x02
 368:	8b 81       	ldd	r24, Y+3	; 0x03
 36a:	9c 81       	ldd	r25, Y+4	; 0x04
 36c:	24 96       	adiw	r28, 0x04	; 4
 36e:	e6 e0       	ldi	r30, 0x06	; 6
 370:	0c 94 3f 04 	jmp	0x87e	; 0x87e <.Loc.12>

00000374 <set_system_time>:
 374:	0f 93       	push	r16
 376:	1f 93       	push	r17
 378:	8b 01       	movw	r16, r22
 37a:	9c 01       	movw	r18, r24
 37c:	8f b7       	in	r24, 0x3f	; 63
 37e:	f8 94       	cli
 380:	00 93 01 01 	sts	0x0101, r16	; 0x800101 <__system_time>
 384:	10 93 02 01 	sts	0x0102, r17	; 0x800102 <__system_time+0x1>
 388:	20 93 03 01 	sts	0x0103, r18	; 0x800103 <__system_time+0x2>
 38c:	30 93 04 01 	sts	0x0104, r19	; 0x800104 <__system_time+0x3>
 390:	8f bf       	out	0x3f, r24	; 63
 392:	1f 91       	pop	r17
 394:	0f 91       	pop	r16
 396:	08 95       	ret

00000398 <time>:
 398:	fc 01       	movw	r30, r24
 39a:	2f b7       	in	r18, 0x3f	; 63
 39c:	f8 94       	cli
 39e:	60 91 01 01 	lds	r22, 0x0101	; 0x800101 <__system_time>
 3a2:	70 91 02 01 	lds	r23, 0x0102	; 0x800102 <__system_time+0x1>
 3a6:	80 91 03 01 	lds	r24, 0x0103	; 0x800103 <__system_time+0x2>
 3aa:	90 91 04 01 	lds	r25, 0x0104	; 0x800104 <__system_time+0x3>
 3ae:	2f bf       	out	0x3f, r18	; 63
 3b0:	30 97       	sbiw	r30, 0x00	; 0
 3b2:	21 f0       	breq	.+8      	; 0x3bc <.L1>
 3b4:	60 83       	st	Z, r22
 3b6:	71 83       	std	Z+1, r23	; 0x01
 3b8:	82 83       	std	Z+2, r24	; 0x02
 3ba:	93 83       	std	Z+3, r25	; 0x03

000003bc <.L1>:
 3bc:	08 95       	ret

000003be <system_tick>:
 3be:	8f 93       	push	r24
 3c0:	8f b7       	in	r24, 0x3f	; 63
 3c2:	8f 93       	push	r24
 3c4:	f8 94       	cli
 3c6:	80 91 01 01 	lds	r24, 0x0101	; 0x800101 <__system_time>
 3ca:	8f 5f       	subi	r24, 0xFF	; 255
 3cc:	80 93 01 01 	sts	0x0101, r24	; 0x800101 <__system_time>
 3d0:	80 91 02 01 	lds	r24, 0x0102	; 0x800102 <__system_time+0x1>
 3d4:	8f 4f       	sbci	r24, 0xFF	; 255
 3d6:	80 93 02 01 	sts	0x0102, r24	; 0x800102 <__system_time+0x1>
 3da:	80 91 03 01 	lds	r24, 0x0103	; 0x800103 <__system_time+0x2>
 3de:	8f 4f       	sbci	r24, 0xFF	; 255
 3e0:	80 93 03 01 	sts	0x0103, r24	; 0x800103 <__system_time+0x2>
 3e4:	80 91 04 01 	lds	r24, 0x0104	; 0x800104 <__system_time+0x3>
 3e8:	8f 4f       	sbci	r24, 0xFF	; 255
 3ea:	80 93 04 01 	sts	0x0104, r24	; 0x800104 <__system_time+0x3>
 3ee:	8f 91       	pop	r24
 3f0:	8f bf       	out	0x3f, r24	; 63
 3f2:	8f 91       	pop	r24
 3f4:	08 95       	ret

000003f6 <gmtime_r>:
 3f6:	a8 e0       	ldi	r26, 0x08	; 8
 3f8:	b0 e0       	ldi	r27, 0x00	; 0
 3fa:	e1 e0       	ldi	r30, 0x01	; 1
 3fc:	f2 e0       	ldi	r31, 0x02	; 2
 3fe:	0c 94 1d 04 	jmp	0x83a	; 0x83a <.Loc.6>

00000402 <.L1^B1>:
 402:	8b 01       	movw	r16, r22
 404:	fc 01       	movw	r30, r24
 406:	60 81       	ld	r22, Z
 408:	71 81       	ldd	r23, Z+1	; 0x01
 40a:	82 81       	ldd	r24, Z+2	; 0x02
 40c:	93 81       	ldd	r25, Z+3	; 0x03
 40e:	20 e8       	ldi	r18, 0x80	; 128
 410:	31 e5       	ldi	r19, 0x51	; 81
 412:	41 e0       	ldi	r20, 0x01	; 1
 414:	50 e0       	ldi	r21, 0x00	; 0
 416:	0e 94 c4 03 	call	0x788	; 0x788 <__udivmodsi4>
 41a:	49 01       	movw	r8, r18
 41c:	5a 01       	movw	r10, r20
 41e:	2c e3       	ldi	r18, 0x3C	; 60
 420:	30 e0       	ldi	r19, 0x00	; 0
 422:	40 e0       	ldi	r20, 0x00	; 0
 424:	50 e0       	ldi	r21, 0x00	; 0
 426:	0e 94 e6 03 	call	0x7cc	; 0x7cc <__divmodsi4>
 42a:	29 83       	std	Y+1, r18	; 0x01
 42c:	3a 83       	std	Y+2, r19	; 0x02
 42e:	4b 83       	std	Y+3, r20	; 0x03
 430:	5c 83       	std	Y+4, r21	; 0x04
 432:	f8 01       	movw	r30, r16
 434:	60 83       	st	Z, r22
 436:	6c e3       	ldi	r22, 0x3C	; 60
 438:	70 e0       	ldi	r23, 0x00	; 0
 43a:	89 81       	ldd	r24, Y+1	; 0x01
 43c:	9a 81       	ldd	r25, Y+2	; 0x02
 43e:	0e 94 b0 03 	call	0x760	; 0x760 <__divmodhi4>
 442:	f8 01       	movw	r30, r16
 444:	81 83       	std	Z+1, r24	; 0x01
 446:	62 83       	std	Z+2, r22	; 0x02
 448:	c4 01       	movw	r24, r8
 44a:	06 96       	adiw	r24, 0x06	; 6
 44c:	67 e0       	ldi	r22, 0x07	; 7
 44e:	70 e0       	ldi	r23, 0x00	; 0
 450:	0e 94 9c 03 	call	0x738	; 0x738 <__udivmodhi4>
 454:	84 83       	std	Z+4, r24	; 0x04
 456:	2d ea       	ldi	r18, 0xAD	; 173
 458:	3e e8       	ldi	r19, 0x8E	; 142
 45a:	40 e0       	ldi	r20, 0x00	; 0
 45c:	50 e0       	ldi	r21, 0x00	; 0
 45e:	c5 01       	movw	r24, r10
 460:	b4 01       	movw	r22, r8
 462:	0e 94 e6 03 	call	0x7cc	; 0x7cc <__divmodsi4>
 466:	29 83       	std	Y+1, r18	; 0x01
 468:	3a 83       	std	Y+2, r19	; 0x02
 46a:	6d 83       	std	Y+5, r22	; 0x05
 46c:	7e 83       	std	Y+6, r23	; 0x06
 46e:	8f 83       	std	Y+7, r24	; 0x07
 470:	98 87       	std	Y+8, r25	; 0x08
 472:	89 81       	ldd	r24, Y+1	; 0x01
 474:	9a 81       	ldd	r25, Y+2	; 0x02
 476:	24 e6       	ldi	r18, 0x64	; 100
 478:	28 9f       	mul	r18, r24
 47a:	40 01       	movw	r8, r0
 47c:	29 9f       	mul	r18, r25
 47e:	90 0c       	add	r9, r0
 480:	11 24       	eor	r1, r1
 482:	6d 81       	ldd	r22, Y+5	; 0x05
 484:	7e 81       	ldd	r23, Y+6	; 0x06
 486:	8f 81       	ldd	r24, Y+7	; 0x07
 488:	98 85       	ldd	r25, Y+8	; 0x08
 48a:	25 eb       	ldi	r18, 0xB5	; 181
 48c:	35 e0       	ldi	r19, 0x05	; 5
 48e:	40 e0       	ldi	r20, 0x00	; 0
 490:	50 e0       	ldi	r21, 0x00	; 0
 492:	0e 94 e6 03 	call	0x7cc	; 0x7cc <__divmodsi4>
 496:	29 83       	std	Y+1, r18	; 0x01
 498:	3a 83       	std	Y+2, r19	; 0x02
 49a:	6d 83       	std	Y+5, r22	; 0x05
 49c:	7e 83       	std	Y+6, r23	; 0x06
 49e:	a9 80       	ldd	r10, Y+1	; 0x01
 4a0:	ba 80       	ldd	r11, Y+2	; 0x02
 4a2:	aa 0c       	add	r10, r10
 4a4:	bb 1c       	adc	r11, r11
 4a6:	aa 0c       	add	r10, r10
 4a8:	bb 1c       	adc	r11, r11
 4aa:	a8 0c       	add	r10, r8
 4ac:	b9 1c       	adc	r11, r9
 4ae:	8d 81       	ldd	r24, Y+5	; 0x05
 4b0:	9e 81       	ldd	r25, Y+6	; 0x06
 4b2:	f5 e6       	ldi	r31, 0x65	; 101
 4b4:	af 16       	cp	r10, r31
 4b6:	b1 04       	cpc	r11, r1
 4b8:	90 f1       	brcs	.+100    	; 0x51e <.L2>
 4ba:	01 96       	adiw	r24, 0x01	; 1
 4bc:	21 e0       	ldi	r18, 0x01	; 1
 4be:	30 e0       	ldi	r19, 0x00	; 0

000004c0 <.L3>:
 4c0:	a9 01       	movw	r20, r18
 4c2:	44 59       	subi	r20, 0x94	; 148
 4c4:	5e 4f       	sbci	r21, 0xFE	; 254
 4c6:	48 17       	cp	r20, r24
 4c8:	59 07       	cpc	r21, r25
 4ca:	50 f4       	brcc	.+20     	; 0x4e0 <.L5>
 4cc:	6d e6       	ldi	r22, 0x6D	; 109
 4ce:	71 e0       	ldi	r23, 0x01	; 1
 4d0:	82 1b       	sub	r24, r18
 4d2:	93 0b       	sbc	r25, r19
 4d4:	0e 94 b0 03 	call	0x760	; 0x760 <__divmodhi4>
 4d8:	a6 0e       	add	r10, r22
 4da:	b7 1e       	adc	r11, r23
 4dc:	20 e0       	ldi	r18, 0x00	; 0
 4de:	30 e0       	ldi	r19, 0x00	; 0

000004e0 <.L5>:
 4e0:	44 e6       	ldi	r20, 0x64	; 100
 4e2:	a4 0e       	add	r10, r20
 4e4:	b1 1c       	adc	r11, r1
 4e6:	f8 01       	movw	r30, r16
 4e8:	b7 82       	std	Z+7, r11	; 0x07
 4ea:	a6 82       	std	Z+6, r10	; 0x06
 4ec:	91 87       	std	Z+9, r25	; 0x09
 4ee:	80 87       	std	Z+8, r24	; 0x08
 4f0:	25 5c       	subi	r18, 0xC5	; 197
 4f2:	3f 4f       	sbci	r19, 0xFF	; 255
 4f4:	82 17       	cp	r24, r18
 4f6:	93 07       	cpc	r25, r19
 4f8:	d8 f4       	brcc	.+54     	; 0x530 <.L6>
 4fa:	6f e1       	ldi	r22, 0x1F	; 31
 4fc:	70 e0       	ldi	r23, 0x00	; 0
 4fe:	0e 94 b0 03 	call	0x760	; 0x760 <__divmodhi4>
 502:	6b 01       	movw	r12, r22
 504:	7c 01       	movw	r14, r24
 506:	86 2f       	mov	r24, r22

00000508 <.L8>:
 508:	9e 2d       	mov	r25, r14
 50a:	f8 01       	movw	r30, r16
 50c:	85 83       	std	Z+5, r24	; 0x05
 50e:	13 86       	std	Z+11, r1	; 0x0b
 510:	12 86       	std	Z+10, r1	; 0x0a
 512:	9f 5f       	subi	r25, 0xFF	; 255
 514:	93 83       	std	Z+3, r25	; 0x03
 516:	28 96       	adiw	r28, 0x08	; 8
 518:	ec e0       	ldi	r30, 0x0C	; 12
 51a:	0c 94 39 04 	jmp	0x872	; 0x872 <.Loc.6>

0000051e <.L2>:
 51e:	41 e0       	ldi	r20, 0x01	; 1
 520:	24 e6       	ldi	r18, 0x64	; 100
 522:	a2 16       	cp	r10, r18
 524:	b1 04       	cpc	r11, r1
 526:	09 f4       	brne	.+2      	; 0x52a <.L4>
 528:	40 e0       	ldi	r20, 0x00	; 0

0000052a <.L4>:
 52a:	24 2f       	mov	r18, r20
 52c:	30 e0       	ldi	r19, 0x00	; 0
 52e:	c8 cf       	rjmp	.-112    	; 0x4c0 <.L3>

00000530 <.L6>:
 530:	69 e9       	ldi	r22, 0x99	; 153
 532:	70 e0       	ldi	r23, 0x00	; 0
 534:	82 1b       	sub	r24, r18
 536:	93 0b       	sbc	r25, r19
 538:	0e 94 b0 03 	call	0x760	; 0x760 <__divmodhi4>
 53c:	b6 2e       	mov	r11, r22
 53e:	bb 0c       	add	r11, r11
 540:	bb 0c       	add	r11, r11
 542:	b6 0e       	add	r11, r22
 544:	6d e3       	ldi	r22, 0x3D	; 61
 546:	70 e0       	ldi	r23, 0x00	; 0
 548:	0e 94 b0 03 	call	0x760	; 0x760 <__divmodhi4>
 54c:	a6 2e       	mov	r10, r22
 54e:	aa 0c       	add	r10, r10
 550:	6f e1       	ldi	r22, 0x1F	; 31
 552:	70 e0       	ldi	r23, 0x00	; 0
 554:	0e 94 b0 03 	call	0x760	; 0x760 <__divmodhi4>
 558:	6b 01       	movw	r12, r22
 55a:	7c 01       	movw	r14, r24
 55c:	82 e0       	ldi	r24, 0x02	; 2
 55e:	8c 0d       	add	r24, r12
 560:	8b 0d       	add	r24, r11
 562:	8a 0d       	add	r24, r10
 564:	d1 cf       	rjmp	.-94     	; 0x508 <.L8>

00000566 <mk_gmtime>:
 566:	8f 92       	push	r8
 568:	9f 92       	push	r9
 56a:	af 92       	push	r10
 56c:	bf 92       	push	r11
 56e:	cf 92       	push	r12
 570:	df 92       	push	r13
 572:	ef 92       	push	r14
 574:	ff 92       	push	r15
 576:	cf 93       	push	r28
 578:	df 93       	push	r29
 57a:	ec 01       	movw	r28, r24
 57c:	ee 81       	ldd	r30, Y+6	; 0x06
 57e:	ff 81       	ldd	r31, Y+7	; 0x07
 580:	7f 01       	movw	r14, r30
 582:	24 e6       	ldi	r18, 0x64	; 100
 584:	e2 1a       	sub	r14, r18
 586:	f1 08       	sbc	r15, r1
 588:	09 f4       	brne	.+2      	; 0x58c <L0^A+0x2>

0000058a <L0^A>:
 58a:	72 c0       	rjmp	.+228    	; 0x670 <.L8>
 58c:	cf 01       	movw	r24, r30
 58e:	85 56       	subi	r24, 0x65	; 101
 590:	91 09       	sbc	r25, r1
 592:	9c 01       	movw	r18, r24
 594:	97 ff       	sbrs	r25, 7
 596:	02 c0       	rjmp	.+4      	; 0x59c <.L3>
 598:	2d 5f       	subi	r18, 0xFD	; 253
 59a:	3f 4f       	sbci	r19, 0xFF	; 255

0000059c <.L3>:
 59c:	35 95       	asr	r19
 59e:	27 95       	ror	r18
 5a0:	35 95       	asr	r19
 5a2:	27 95       	ror	r18
 5a4:	6c e9       	ldi	r22, 0x9C	; 156
 5a6:	7f ef       	ldi	r23, 0xFF	; 255
 5a8:	0e 94 b0 03 	call	0x760	; 0x760 <__divmodhi4>
 5ac:	62 0f       	add	r22, r18
 5ae:	73 1f       	adc	r23, r19
 5b0:	ab 01       	movw	r20, r22
 5b2:	4f 5f       	subi	r20, 0xFF	; 255
 5b4:	5f 4f       	sbci	r21, 0xFF	; 255

000005b6 <.L2>:
 5b6:	2d e6       	ldi	r18, 0x6D	; 109
 5b8:	31 e0       	ldi	r19, 0x01	; 1
 5ba:	d7 01       	movw	r26, r14
 5bc:	0e 94 05 04 	call	0x80a	; 0x80a <__usmulhisi3>
 5c0:	6a 01       	movw	r12, r20
 5c2:	55 0f       	add	r21, r21
 5c4:	ee 08       	sbc	r14, r14
 5c6:	ff 08       	sbc	r15, r15
 5c8:	4b 01       	movw	r8, r22
 5ca:	5c 01       	movw	r10, r24
 5cc:	8c 0c       	add	r8, r12
 5ce:	9d 1c       	adc	r9, r13
 5d0:	ae 1c       	adc	r10, r14
 5d2:	bf 1c       	adc	r11, r15
 5d4:	8b 81       	ldd	r24, Y+3	; 0x03
 5d6:	08 2e       	mov	r0, r24
 5d8:	00 0c       	add	r0, r0
 5da:	99 0b       	sbc	r25, r25
 5dc:	01 97       	sbiw	r24, 0x01	; 1
 5de:	6c 01       	movw	r12, r24
 5e0:	2d 81       	ldd	r18, Y+5	; 0x05
 5e2:	22 30       	cpi	r18, 0x02	; 2
 5e4:	0c f0       	brlt	.+2      	; 0x5e8 <L0^A+0x2>

000005e6 <L0^A>:
 5e6:	47 c0       	rjmp	.+142    	; 0x676 <.L4>
 5e8:	21 15       	cp	r18, r1
 5ea:	19 f0       	breq	.+6      	; 0x5f2 <.L5>
 5ec:	2f e1       	ldi	r18, 0x1F	; 31
 5ee:	c2 0e       	add	r12, r18
 5f0:	d1 1c       	adc	r13, r1

000005f2 <.L5>:
 5f2:	0d 2c       	mov	r0, r13
 5f4:	00 0c       	add	r0, r0
 5f6:	ee 08       	sbc	r14, r14
 5f8:	ff 08       	sbc	r15, r15
 5fa:	c8 0c       	add	r12, r8
 5fc:	d9 1c       	adc	r13, r9
 5fe:	ea 1c       	adc	r14, r10
 600:	fb 1c       	adc	r15, r11
 602:	aa 81       	ldd	r26, Y+2	; 0x02
 604:	0a 2e       	mov	r0, r26
 606:	00 0c       	add	r0, r0
 608:	bb 0b       	sbc	r27, r27
 60a:	20 e1       	ldi	r18, 0x10	; 16
 60c:	3e e0       	ldi	r19, 0x0E	; 14
 60e:	0e 94 05 04 	call	0x80a	; 0x80a <__usmulhisi3>
 612:	4b 01       	movw	r8, r22
 614:	5c 01       	movw	r10, r24
 616:	a9 81       	ldd	r26, Y+1	; 0x01
 618:	0a 2e       	mov	r0, r26
 61a:	00 0c       	add	r0, r0
 61c:	bb 0b       	sbc	r27, r27
 61e:	2c e3       	ldi	r18, 0x3C	; 60
 620:	30 e0       	ldi	r19, 0x00	; 0
 622:	0e 94 05 04 	call	0x80a	; 0x80a <__usmulhisi3>
 626:	68 0d       	add	r22, r8
 628:	79 1d       	adc	r23, r9
 62a:	8a 1d       	adc	r24, r10
 62c:	9b 1d       	adc	r25, r11
 62e:	88 80       	ld	r8, Y
 630:	08 2c       	mov	r0, r8
 632:	00 0c       	add	r0, r0
 634:	99 08       	sbc	r9, r9
 636:	aa 08       	sbc	r10, r10
 638:	bb 08       	sbc	r11, r11
 63a:	86 0e       	add	r8, r22
 63c:	97 1e       	adc	r9, r23
 63e:	a8 1e       	adc	r10, r24
 640:	b9 1e       	adc	r11, r25
 642:	a7 01       	movw	r20, r14
 644:	96 01       	movw	r18, r12
 646:	60 e8       	ldi	r22, 0x80	; 128
 648:	71 e5       	ldi	r23, 0x51	; 81
 64a:	81 e0       	ldi	r24, 0x01	; 1
 64c:	90 e0       	ldi	r25, 0x00	; 0
 64e:	0e 94 8c 03 	call	0x718	; 0x718 <__mulsi3>
 652:	68 0d       	add	r22, r8
 654:	79 1d       	adc	r23, r9
 656:	8a 1d       	adc	r24, r10
 658:	9b 1d       	adc	r25, r11
 65a:	df 91       	pop	r29
 65c:	cf 91       	pop	r28
 65e:	ff 90       	pop	r15
 660:	ef 90       	pop	r14
 662:	df 90       	pop	r13
 664:	cf 90       	pop	r12
 666:	bf 90       	pop	r11
 668:	af 90       	pop	r10
 66a:	9f 90       	pop	r9
 66c:	8f 90       	pop	r8
 66e:	08 95       	ret

00000670 <.L8>:
 670:	40 e0       	ldi	r20, 0x00	; 0
 672:	50 e0       	ldi	r21, 0x00	; 0
 674:	a0 cf       	rjmp	.-192    	; 0x5b6 <.L2>

00000676 <.L4>:
 676:	cf 01       	movw	r24, r30
 678:	84 59       	subi	r24, 0x94	; 148
 67a:	98 4f       	sbci	r25, 0xF8	; 248
 67c:	0e 94 6d 03 	call	0x6da	; 0x6da <is_leap_year>
 680:	28 2f       	mov	r18, r24
 682:	30 e0       	ldi	r19, 0x00	; 0
 684:	25 5c       	subi	r18, 0xC5	; 197
 686:	3f 4f       	sbci	r19, 0xFF	; 255
 688:	2c 0d       	add	r18, r12
 68a:	3d 1d       	adc	r19, r13
 68c:	8d 81       	ldd	r24, Y+5	; 0x05
 68e:	08 2e       	mov	r0, r24
 690:	00 0c       	add	r0, r0
 692:	99 0b       	sbc	r25, r25
 694:	02 97       	sbiw	r24, 0x02	; 2
 696:	85 30       	cpi	r24, 0x05	; 5
 698:	91 05       	cpc	r25, r1
 69a:	14 f0       	brlt	.+4      	; 0x6a0 <.L6>
 69c:	27 56       	subi	r18, 0x67	; 103
 69e:	3f 4f       	sbci	r19, 0xFF	; 255

000006a0 <.L6>:
 6a0:	65 e0       	ldi	r22, 0x05	; 5
 6a2:	70 e0       	ldi	r23, 0x00	; 0
 6a4:	0e 94 b0 03 	call	0x760	; 0x760 <__divmodhi4>
 6a8:	ac 01       	movw	r20, r24
 6aa:	97 ff       	sbrs	r25, 7
 6ac:	02 c0       	rjmp	.+4      	; 0x6b2 <.L7>
 6ae:	4f 5f       	subi	r20, 0xFF	; 255
 6b0:	5f 4f       	sbci	r21, 0xFF	; 255

000006b2 <.L7>:
 6b2:	55 95       	asr	r21
 6b4:	47 95       	ror	r20
 6b6:	6d e3       	ldi	r22, 0x3D	; 61
 6b8:	64 9f       	mul	r22, r20
 6ba:	60 01       	movw	r12, r0
 6bc:	65 9f       	mul	r22, r21
 6be:	d0 0c       	add	r13, r0
 6c0:	11 24       	eor	r1, r1
 6c2:	c2 0e       	add	r12, r18
 6c4:	d3 1e       	adc	r13, r19
 6c6:	81 70       	andi	r24, 0x01	; 1
 6c8:	99 27       	eor	r25, r25
 6ca:	91 95       	neg	r25
 6cc:	81 95       	neg	r24
 6ce:	91 09       	sbc	r25, r1
 6d0:	8f 71       	andi	r24, 0x1F	; 31
 6d2:	99 27       	eor	r25, r25
 6d4:	c8 0e       	add	r12, r24
 6d6:	d9 1e       	adc	r13, r25
 6d8:	8c cf       	rjmp	.-232    	; 0x5f2 <.L5>

000006da <is_leap_year>:
 6da:	cf 92       	push	r12
 6dc:	df 92       	push	r13
 6de:	ef 92       	push	r14
 6e0:	ff 92       	push	r15
 6e2:	9c 01       	movw	r18, r24
 6e4:	83 70       	andi	r24, 0x03	; 3
 6e6:	99 27       	eor	r25, r25
 6e8:	89 2b       	or	r24, r25
 6ea:	81 f4       	brne	.+32     	; 0x70c <.L4>
 6ec:	64 e6       	ldi	r22, 0x64	; 100
 6ee:	70 e0       	ldi	r23, 0x00	; 0
 6f0:	c9 01       	movw	r24, r18
 6f2:	0e 94 b0 03 	call	0x760	; 0x760 <__divmodhi4>
 6f6:	6b 01       	movw	r12, r22
 6f8:	7c 01       	movw	r14, r24
 6fa:	81 e0       	ldi	r24, 0x01	; 1
 6fc:	ef 28       	or	r14, r15
 6fe:	39 f4       	brne	.+14     	; 0x70e <.L2>
 700:	83 e0       	ldi	r24, 0x03	; 3
 702:	c8 22       	and	r12, r24
 704:	dd 24       	eor	r13, r13
 706:	81 e0       	ldi	r24, 0x01	; 1
 708:	cd 28       	or	r12, r13
 70a:	09 f0       	breq	.+2      	; 0x70e <.L2>

0000070c <.L4>:
 70c:	80 e0       	ldi	r24, 0x00	; 0

0000070e <.L2>:
 70e:	ff 90       	pop	r15
 710:	ef 90       	pop	r14
 712:	df 90       	pop	r13
 714:	cf 90       	pop	r12
 716:	08 95       	ret

00000718 <__mulsi3>:
 718:	db 01       	movw	r26, r22

0000071a <.Loc.1>:
 71a:	8f 93       	push	r24

0000071c <.Loc.2>:
 71c:	9f 93       	push	r25

0000071e <.Loc.3>:
 71e:	0e 94 0c 04 	call	0x818	; 0x818 <__muluhisi3>

00000722 <.Loc.4>:
 722:	bf 91       	pop	r27

00000724 <.Loc.5>:
 724:	af 91       	pop	r26

00000726 <.Loc.6>:
 726:	a2 9f       	mul	r26, r18

00000728 <.Loc.7>:
 728:	80 0d       	add	r24, r0

0000072a <.Loc.8>:
 72a:	91 1d       	adc	r25, r1

0000072c <.Loc.9>:
 72c:	a3 9f       	mul	r26, r19

0000072e <.Loc.10>:
 72e:	90 0d       	add	r25, r0

00000730 <.Loc.11>:
 730:	b2 9f       	mul	r27, r18

00000732 <.Loc.12>:
 732:	90 0d       	add	r25, r0

00000734 <.Loc.13>:
 734:	11 24       	eor	r1, r1

00000736 <.Loc.14>:
 736:	08 95       	ret

00000738 <__udivmodhi4>:
 738:	aa 1b       	sub	r26, r26

0000073a <.Loc.1>:
 73a:	bb 1b       	sub	r27, r27

0000073c <.Loc.2>:
 73c:	51 e1       	ldi	r21, 0x11	; 17

0000073e <.Loc.3>:
 73e:	07 c0       	rjmp	.+14     	; 0x74e <__udivmodhi4_ep>

00000740 <__udivmodhi4_loop>:
 740:	aa 1f       	adc	r26, r26

00000742 <.Loc.5>:
 742:	bb 1f       	adc	r27, r27

00000744 <.Loc.6>:
 744:	a6 17       	cp	r26, r22

00000746 <.Loc.7>:
 746:	b7 07       	cpc	r27, r23

00000748 <.Loc.8>:
 748:	10 f0       	brcs	.+4      	; 0x74e <__udivmodhi4_ep>

0000074a <.Loc.9>:
 74a:	a6 1b       	sub	r26, r22

0000074c <.Loc.10>:
 74c:	b7 0b       	sbc	r27, r23

0000074e <__udivmodhi4_ep>:
 74e:	88 1f       	adc	r24, r24

00000750 <.Loc.12>:
 750:	99 1f       	adc	r25, r25

00000752 <.Loc.13>:
 752:	5a 95       	dec	r21

00000754 <.Loc.14>:
 754:	a9 f7       	brne	.-22     	; 0x740 <__udivmodhi4_loop>

00000756 <.Loc.15>:
 756:	80 95       	com	r24

00000758 <.Loc.16>:
 758:	90 95       	com	r25

0000075a <.Loc.17>:
 75a:	bc 01       	movw	r22, r24

0000075c <.Loc.18>:
 75c:	cd 01       	movw	r24, r26

0000075e <.Loc.19>:
 75e:	08 95       	ret

00000760 <__divmodhi4>:
 760:	97 fb       	bst	r25, 7

00000762 <.Loc.1>:
 762:	07 2e       	mov	r0, r23

00000764 <.Loc.2>:
 764:	16 f4       	brtc	.+4      	; 0x76a <.L0^B1>

00000766 <.Loc.3>:
 766:	00 94       	com	r0

00000768 <.Loc.4>:
 768:	07 d0       	rcall	.+14     	; 0x778 <__divmodhi4_neg1>

0000076a <.L0^B1>:
 76a:	77 fd       	sbrc	r23, 7

0000076c <.Loc.6>:
 76c:	09 d0       	rcall	.+18     	; 0x780 <__divmodhi4_neg2>

0000076e <.Loc.7>:
 76e:	0e 94 9c 03 	call	0x738	; 0x738 <__udivmodhi4>

00000772 <.Loc.8>:
 772:	07 fc       	sbrc	r0, 7

00000774 <.Loc.9>:
 774:	05 d0       	rcall	.+10     	; 0x780 <__divmodhi4_neg2>

00000776 <.Loc.10>:
 776:	3e f4       	brtc	.+14     	; 0x786 <__divmodhi4_exit>

00000778 <__divmodhi4_neg1>:
 778:	90 95       	com	r25

0000077a <.Loc.12>:
 77a:	81 95       	neg	r24

0000077c <.Loc.13>:
 77c:	9f 4f       	sbci	r25, 0xFF	; 255

0000077e <.Loc.14>:
 77e:	08 95       	ret

00000780 <__divmodhi4_neg2>:
 780:	70 95       	com	r23

00000782 <.Loc.16>:
 782:	61 95       	neg	r22

00000784 <.Loc.17>:
 784:	7f 4f       	sbci	r23, 0xFF	; 255

00000786 <__divmodhi4_exit>:
 786:	08 95       	ret

00000788 <__udivmodsi4>:
 788:	a1 e2       	ldi	r26, 0x21	; 33

0000078a <.Loc.1>:
 78a:	1a 2e       	mov	r1, r26

0000078c <.Loc.2>:
 78c:	aa 1b       	sub	r26, r26

0000078e <.Loc.3>:
 78e:	bb 1b       	sub	r27, r27

00000790 <.Loc.4>:
 790:	fd 01       	movw	r30, r26

00000792 <.Loc.5>:
 792:	0d c0       	rjmp	.+26     	; 0x7ae <__udivmodsi4_ep>

00000794 <__udivmodsi4_loop>:
 794:	aa 1f       	adc	r26, r26

00000796 <.Loc.7>:
 796:	bb 1f       	adc	r27, r27

00000798 <.Loc.8>:
 798:	ee 1f       	adc	r30, r30

0000079a <.Loc.9>:
 79a:	ff 1f       	adc	r31, r31

0000079c <.Loc.10>:
 79c:	a2 17       	cp	r26, r18

0000079e <.Loc.11>:
 79e:	b3 07       	cpc	r27, r19

000007a0 <.Loc.12>:
 7a0:	e4 07       	cpc	r30, r20

000007a2 <.Loc.13>:
 7a2:	f5 07       	cpc	r31, r21

000007a4 <.Loc.14>:
 7a4:	20 f0       	brcs	.+8      	; 0x7ae <__udivmodsi4_ep>

000007a6 <.Loc.15>:
 7a6:	a2 1b       	sub	r26, r18

000007a8 <.Loc.16>:
 7a8:	b3 0b       	sbc	r27, r19

000007aa <.Loc.17>:
 7aa:	e4 0b       	sbc	r30, r20

000007ac <.Loc.18>:
 7ac:	f5 0b       	sbc	r31, r21

000007ae <__udivmodsi4_ep>:
 7ae:	66 1f       	adc	r22, r22

000007b0 <.Loc.20>:
 7b0:	77 1f       	adc	r23, r23

000007b2 <.Loc.21>:
 7b2:	88 1f       	adc	r24, r24

000007b4 <.Loc.22>:
 7b4:	99 1f       	adc	r25, r25

000007b6 <.Loc.23>:
 7b6:	1a 94       	dec	r1

000007b8 <.Loc.24>:
 7b8:	69 f7       	brne	.-38     	; 0x794 <__udivmodsi4_loop>

000007ba <.Loc.25>:
 7ba:	60 95       	com	r22

000007bc <.Loc.26>:
 7bc:	70 95       	com	r23

000007be <.Loc.27>:
 7be:	80 95       	com	r24

000007c0 <.Loc.28>:
 7c0:	90 95       	com	r25

000007c2 <.Loc.29>:
 7c2:	9b 01       	movw	r18, r22

000007c4 <.Loc.30>:
 7c4:	ac 01       	movw	r20, r24

000007c6 <.Loc.31>:
 7c6:	bd 01       	movw	r22, r26

000007c8 <.Loc.32>:
 7c8:	cf 01       	movw	r24, r30

000007ca <.Loc.33>:
 7ca:	08 95       	ret

000007cc <__divmodsi4>:
 7cc:	05 2e       	mov	r0, r21

000007ce <.Loc.1>:
 7ce:	97 fb       	bst	r25, 7

000007d0 <.Loc.2>:
 7d0:	1e f4       	brtc	.+6      	; 0x7d8 <.L0^B1>

000007d2 <.Loc.3>:
 7d2:	00 94       	com	r0

000007d4 <.Loc.4>:
 7d4:	0e 94 fd 03 	call	0x7fa	; 0x7fa <__negsi2>

000007d8 <.L0^B1>:
 7d8:	57 fd       	sbrc	r21, 7

000007da <.Loc.6>:
 7da:	07 d0       	rcall	.+14     	; 0x7ea <__divmodsi4_neg2>

000007dc <.Loc.7>:
 7dc:	0e 94 c4 03 	call	0x788	; 0x788 <__udivmodsi4>

000007e0 <.Loc.8>:
 7e0:	07 fc       	sbrc	r0, 7

000007e2 <.Loc.9>:
 7e2:	03 d0       	rcall	.+6      	; 0x7ea <__divmodsi4_neg2>

000007e4 <.Loc.10>:
 7e4:	4e f4       	brtc	.+18     	; 0x7f8 <__divmodsi4_exit>

000007e6 <.Loc.11>:
 7e6:	0c 94 fd 03 	jmp	0x7fa	; 0x7fa <__negsi2>

000007ea <__divmodsi4_neg2>:
 7ea:	50 95       	com	r21

000007ec <.Loc.13>:
 7ec:	40 95       	com	r20

000007ee <.Loc.14>:
 7ee:	30 95       	com	r19

000007f0 <.Loc.15>:
 7f0:	21 95       	neg	r18

000007f2 <.Loc.16>:
 7f2:	3f 4f       	sbci	r19, 0xFF	; 255

000007f4 <.Loc.17>:
 7f4:	4f 4f       	sbci	r20, 0xFF	; 255

000007f6 <.Loc.18>:
 7f6:	5f 4f       	sbci	r21, 0xFF	; 255

000007f8 <__divmodsi4_exit>:
 7f8:	08 95       	ret

000007fa <__negsi2>:
 7fa:	90 95       	com	r25
 7fc:	80 95       	com	r24
 7fe:	70 95       	com	r23
 800:	61 95       	neg	r22
 802:	7f 4f       	sbci	r23, 0xFF	; 255
 804:	8f 4f       	sbci	r24, 0xFF	; 255
 806:	9f 4f       	sbci	r25, 0xFF	; 255

00000808 <.Loc.1>:
 808:	08 95       	ret

0000080a <__usmulhisi3>:
 80a:	0e 94 4e 04 	call	0x89c	; 0x89c <__umulhisi3>

0000080e <__usmulhisi3_tail>:
 80e:	b7 ff       	sbrs	r27, 7

00000810 <.Loc.2>:
 810:	08 95       	ret

00000812 <.Loc.3>:
 812:	82 1b       	sub	r24, r18

00000814 <.Loc.4>:
 814:	93 0b       	sbc	r25, r19

00000816 <.Loc.5>:
 816:	08 95       	ret

00000818 <__muluhisi3>:
 818:	0e 94 4e 04 	call	0x89c	; 0x89c <__umulhisi3>

0000081c <.Loc.1>:
 81c:	a5 9f       	mul	r26, r21

0000081e <.Loc.2>:
 81e:	90 0d       	add	r25, r0

00000820 <.Loc.3>:
 820:	b4 9f       	mul	r27, r20

00000822 <.Loc.4>:
 822:	90 0d       	add	r25, r0

00000824 <.Loc.5>:
 824:	a4 9f       	mul	r26, r20

00000826 <.Loc.6>:
 826:	80 0d       	add	r24, r0

00000828 <.Loc.7>:
 828:	91 1d       	adc	r25, r1

0000082a <.Loc.8>:
 82a:	11 24       	eor	r1, r1

0000082c <.Loc.9>:
 82c:	08 95       	ret

0000082e <__prologue_saves__>:
 82e:	2f 92       	push	r2

00000830 <.Loc.1>:
 830:	3f 92       	push	r3

00000832 <.Loc.2>:
 832:	4f 92       	push	r4

00000834 <.Loc.3>:
 834:	5f 92       	push	r5

00000836 <.Loc.4>:
 836:	6f 92       	push	r6

00000838 <.Loc.5>:
 838:	7f 92       	push	r7

0000083a <.Loc.6>:
 83a:	8f 92       	push	r8

0000083c <.Loc.7>:
 83c:	9f 92       	push	r9

0000083e <.Loc.8>:
 83e:	af 92       	push	r10

00000840 <.Loc.9>:
 840:	bf 92       	push	r11

00000842 <.Loc.10>:
 842:	cf 92       	push	r12

00000844 <.Loc.11>:
 844:	df 92       	push	r13

00000846 <.Loc.12>:
 846:	ef 92       	push	r14

00000848 <.Loc.13>:
 848:	ff 92       	push	r15

0000084a <.Loc.14>:
 84a:	0f 93       	push	r16

0000084c <.Loc.15>:
 84c:	1f 93       	push	r17

0000084e <.Loc.16>:
 84e:	cf 93       	push	r28

00000850 <.Loc.17>:
 850:	df 93       	push	r29

00000852 <.Loc.18>:
 852:	cd b7       	in	r28, 0x3d	; 61

00000854 <.Loc.19>:
 854:	de b7       	in	r29, 0x3e	; 62

00000856 <.Loc.20>:
 856:	ca 1b       	sub	r28, r26

00000858 <.Loc.21>:
 858:	db 0b       	sbc	r29, r27

0000085a <.Loc.22>:
 85a:	0f b6       	in	r0, 0x3f	; 63

0000085c <.Loc.23>:
 85c:	f8 94       	cli

0000085e <.Loc.24>:
 85e:	de bf       	out	0x3e, r29	; 62

00000860 <.Loc.25>:
 860:	0f be       	out	0x3f, r0	; 63

00000862 <.Loc.26>:
 862:	cd bf       	out	0x3d, r28	; 61

00000864 <.Loc.27>:
 864:	09 94       	ijmp

00000866 <__epilogue_restores__>:
 866:	2a 88       	ldd	r2, Y+18	; 0x12

00000868 <.Loc.1>:
 868:	39 88       	ldd	r3, Y+17	; 0x11

0000086a <.Loc.2>:
 86a:	48 88       	ldd	r4, Y+16	; 0x10

0000086c <.Loc.3>:
 86c:	5f 84       	ldd	r5, Y+15	; 0x0f

0000086e <.Loc.4>:
 86e:	6e 84       	ldd	r6, Y+14	; 0x0e

00000870 <.Loc.5>:
 870:	7d 84       	ldd	r7, Y+13	; 0x0d

00000872 <.Loc.6>:
 872:	8c 84       	ldd	r8, Y+12	; 0x0c

00000874 <.Loc.7>:
 874:	9b 84       	ldd	r9, Y+11	; 0x0b

00000876 <.Loc.8>:
 876:	aa 84       	ldd	r10, Y+10	; 0x0a

00000878 <.Loc.9>:
 878:	b9 84       	ldd	r11, Y+9	; 0x09

0000087a <.Loc.10>:
 87a:	c8 84       	ldd	r12, Y+8	; 0x08

0000087c <.Loc.11>:
 87c:	df 80       	ldd	r13, Y+7	; 0x07

0000087e <.Loc.12>:
 87e:	ee 80       	ldd	r14, Y+6	; 0x06

00000880 <.Loc.13>:
 880:	fd 80       	ldd	r15, Y+5	; 0x05

00000882 <.Loc.14>:
 882:	0c 81       	ldd	r16, Y+4	; 0x04

00000884 <.Loc.15>:
 884:	1b 81       	ldd	r17, Y+3	; 0x03

00000886 <.Loc.16>:
 886:	aa 81       	ldd	r26, Y+2	; 0x02

00000888 <.Loc.17>:
 888:	b9 81       	ldd	r27, Y+1	; 0x01

0000088a <.Loc.18>:
 88a:	ce 0f       	add	r28, r30

0000088c <.Loc.19>:
 88c:	d1 1d       	adc	r29, r1

0000088e <.Loc.20>:
 88e:	0f b6       	in	r0, 0x3f	; 63

00000890 <.Loc.21>:
 890:	f8 94       	cli

00000892 <.Loc.22>:
 892:	de bf       	out	0x3e, r29	; 62

00000894 <.Loc.23>:
 894:	0f be       	out	0x3f, r0	; 63

00000896 <.Loc.24>:
 896:	cd bf       	out	0x3d, r28	; 61

00000898 <.Loc.25>:
 898:	ed 01       	movw	r28, r26

0000089a <.Loc.26>:
 89a:	08 95       	ret

0000089c <__umulhisi3>:
 89c:	a2 9f       	mul	r26, r18

0000089e <.Loc.1>:
 89e:	b0 01       	movw	r22, r0

000008a0 <.Loc.2>:
 8a0:	b3 9f       	mul	r27, r19

000008a2 <.Loc.3>:
 8a2:	c0 01       	movw	r24, r0

000008a4 <.Loc.4>:
 8a4:	a3 9f       	mul	r26, r19

000008a6 <.Loc.5>:
 8a6:	70 0d       	add	r23, r0

000008a8 <.Loc.6>:
 8a8:	81 1d       	adc	r24, r1

000008aa <.Loc.7>:
 8aa:	11 24       	eor	r1, r1

000008ac <.Loc.8>:
 8ac:	91 1d       	adc	r25, r1

000008ae <.Loc.9>:
 8ae:	b2 9f       	mul	r27, r18

000008b0 <.Loc.10>:
 8b0:	70 0d       	add	r23, r0

000008b2 <.Loc.11>:
 8b2:	81 1d       	adc	r24, r1

000008b4 <.Loc.12>:
 8b4:	11 24       	eor	r1, r1

000008b6 <.Loc.13>:
 8b6:	91 1d       	adc	r25, r1

000008b8 <.Loc.14>:
 8b8:	08 95       	ret

000008ba <_exit>:
 8ba:	f8 94       	cli

000008bc <__stop_program>:
 8bc:	ff cf       	rjmp	.-2      	; 0x8bc <__stop_program>

Disassembly of section .comment:

00000000 <_end-0x80010b>:
   0:	47 43       	sbci	r20, 0x37	; 55
   2:	43 3a       	cpi	r20, 0xA3	; 163
   4:	20 28       	or	r2, r0
   6:	47 4e       	sbci	r20, 0xE7	; 231
   8:	55 29       	or	r21, r5
   a:	20 31       	cpi	r18, 0x10	; 16
   c:	34 2e       	mov	r3, r20
   e:	31 2e       	mov	r3, r17
  10:	30 00       	.word	0x0030	; ????

Disassembly of section .note.gnu.avr.deviceinfo:

00000000 <.note.gnu.avr.deviceinfo>:
   0:	04 00       	.word	0x0004	; ????
   2:	00 00       	nop
   4:	2d 00       	.word	0x002d	; ????
   6:	00 00       	nop
   8:	01 00       	.word	0x0001	; ????
   a:	00 00       	nop
   c:	41 56       	subi	r20, 0x61	; 97
   e:	52 00       	.word	0x0052	; ????
  10:	00 00       	nop
  12:	00 00       	nop
  14:	00 80       	ld	r0, Z
  16:	00 00       	nop
  18:	00 01       	movw	r0, r0
  1a:	00 00       	nop
  1c:	00 08       	sbc	r0, r0
  1e:	00 00       	nop
  20:	00 00       	nop
  22:	00 00       	nop
  24:	00 04       	cpc	r0, r0
  26:	00 00       	nop
  28:	08 00       	.word	0x0008	; ????
  2a:	00 00       	nop
  2c:	01 00       	.word	0x0001	; ????
  2e:	00 00       	nop
  30:	00 61       	ori	r16, 0x10	; 16
  32:	74 6d       	ori	r23, 0xD4	; 212
  34:	65 67       	ori	r22, 0x75	; 117
  36:	61 33       	cpi	r22, 0x31	; 49
  38:	32 38       	cpi	r19, 0x82	; 130
  3a:	70 00       	.word	0x0070	; ????
  3c:	00 00       	nop
	...

Disassembly of section .debug_info:

00000000 <.debug_info>:
   0:	f0 05       	cpc	r31, r0
   2:	00 00       	nop
   4:	02 00       	.word	0x0002	; ????
   6:	00 00       	nop
   8:	00 00       	nop
   a:	04 01       	movw	r0, r8
	...
  14:	02 0f       	add	r16, r18
  16:	00 00       	nop
  18:	00 01       	movw	r0, r0
  1a:	08 03       	fmul	r16, r16
  1c:	17 00       	.word	0x0017	; ????
  1e:	00 00       	nop
  20:	02 07       	cpc	r16, r18
  22:	04 14       	cp	r0, r4
  24:	00 00       	nop
  26:	00 05       	cpc	r16, r0
  28:	1b 00       	.word	0x001b	; ????
  2a:	00 00       	nop
  2c:	ff 03       	fmulsu	r23, r23
  2e:	00 06       	cpc	r0, r16
  30:	20 00       	.word	0x0020	; ????
  32:	00 00       	nop
  34:	00 00       	nop
  36:	22 00       	.word	0x0022	; ????
  38:	00 00       	nop
  3a:	01 05       	cpc	r16, r1
  3c:	03 00       	.word	0x0003	; ????
  3e:	00 81       	ld	r16, Z
  40:	00 07       	cpc	r16, r16
  42:	29 00       	.word	0x0029	; ????
  44:	00 00       	nop
  46:	00 00       	nop
  48:	14 00       	.word	0x0014	; ????
  4a:	00 00       	nop
  4c:	01 05       	cpc	r16, r1
  4e:	03 c6       	rjmp	.+3078   	; 0xc56 <__stack+0x357>
  50:	00 80       	ld	r0, Z
  52:	00 08       	sbc	r0, r0
  54:	2e 00       	.word	0x002e	; ????
  56:	00 00       	nop
  58:	00 00       	nop
  5a:	14 00       	.word	0x0014	; ????
  5c:	00 00       	nop
  5e:	01 05       	cpc	r16, r1
  60:	03 c0       	rjmp	.+6      	; 0x68 <__ctors_end>
  62:	00 80       	ld	r0, Z
  64:	00 09       	sbc	r16, r0
  66:	35 00       	.word	0x0035	; ????
  68:	00 00       	nop
  6a:	00 00       	nop
  6c:	14 00       	.word	0x0014	; ????
  6e:	00 00       	nop
  70:	01 05       	cpc	r16, r1
  72:	03 c1       	rjmp	.+518    	; 0x27a <.L2+0xa>
  74:	00 80       	ld	r0, Z
  76:	00 0a       	sbc	r0, r16
  78:	3c 00       	.word	0x003c	; ????
  7a:	00 00       	nop
  7c:	00 00       	nop
  7e:	14 00       	.word	0x0014	; ????
  80:	00 00       	nop
  82:	01 05       	cpc	r16, r1
  84:	03 c2       	rjmp	.+1030   	; 0x48c <.L1^B1+0x8a>
  86:	00 80       	ld	r0, Z
  88:	00 0b       	sbc	r16, r16
  8a:	43 00       	.word	0x0043	; ????
  8c:	00 00       	nop
  8e:	00 00       	nop
  90:	1b 00       	.word	0x001b	; ????
  92:	00 00       	nop
  94:	01 05       	cpc	r16, r1
  96:	03 c4       	rjmp	.+2054   	; 0x89e <.Loc.1>
  98:	00 80       	ld	r0, Z
  9a:	00 0c       	add	r0, r0
  9c:	49 00       	.word	0x0049	; ????
  9e:	00 00       	nop
  a0:	00 00       	nop
  a2:	14 00       	.word	0x0014	; ????
  a4:	00 00       	nop
  a6:	01 05       	cpc	r16, r1
  a8:	03 bd       	out	0x23, r16	; 35
  aa:	00 80       	ld	r0, Z
  ac:	00 0d       	add	r16, r0
  ae:	4f 00       	.word	0x004f	; ????
  b0:	00 00       	nop
  b2:	00 00       	nop
  b4:	14 00       	.word	0x0014	; ????
  b6:	00 00       	nop
  b8:	01 05       	cpc	r16, r1
  ba:	03 b8       	out	0x03, r0	; 3
  bc:	00 80       	ld	r0, Z
  be:	00 0e       	add	r0, r16
  c0:	54 00       	.word	0x0054	; ????
  c2:	00 00       	nop
  c4:	00 00       	nop
  c6:	14 00       	.word	0x0014	; ????
  c8:	00 00       	nop
  ca:	01 05       	cpc	r16, r1
  cc:	03 bc       	out	0x23, r0	; 35
  ce:	00 80       	ld	r0, Z
  d0:	00 0f       	add	r16, r16
  d2:	59 00       	.word	0x0059	; ????
  d4:	00 00       	nop
  d6:	00 00       	nop
  d8:	14 00       	.word	0x0014	; ????
  da:	00 00       	nop
  dc:	01 05       	cpc	r16, r1
  de:	03 b9       	out	0x03, r16	; 3
  e0:	00 80       	ld	r0, Z
  e2:	00 10       	cpse	r0, r0
  e4:	5e 00       	.word	0x005e	; ????
  e6:	00 00       	nop
  e8:	00 00       	nop
  ea:	14 00       	.word	0x0014	; ????
  ec:	00 00       	nop
  ee:	01 05       	cpc	r16, r1
  f0:	03 bb       	out	0x13, r16	; 19
  f2:	00 80       	ld	r0, Z
  f4:	00 11       	cpse	r16, r0
  f6:	63 00       	.word	0x0063	; ????
  f8:	00 00       	nop
  fa:	00 00       	nop
  fc:	14 00       	.word	0x0014	; ????
  fe:	00 00       	nop
 100:	01 05       	cpc	r16, r1
 102:	03 ba       	out	0x13, r0	; 19
 104:	00 80       	ld	r0, Z
 106:	00 12       	cpse	r0, r16
 108:	68 00       	.word	0x0068	; ????
 10a:	00 00       	nop
 10c:	00 00       	nop
 10e:	14 00       	.word	0x0014	; ????
 110:	00 00       	nop
 112:	01 05       	cpc	r16, r1
 114:	03 6f       	ori	r16, 0xF3	; 243
 116:	00 80       	ld	r0, Z
 118:	00 13       	cpse	r16, r16
 11a:	6f 00       	.word	0x006f	; ????
 11c:	00 00       	nop
 11e:	00 00       	nop
 120:	14 00       	.word	0x0014	; ????
 122:	00 00       	nop
 124:	01 05       	cpc	r16, r1
 126:	03 36       	cpi	r16, 0x63	; 99
 128:	00 80       	ld	r0, Z
 12a:	00 14       	cp	r0, r0
 12c:	75 00       	.word	0x0075	; ????
 12e:	00 00       	nop
 130:	00 00       	nop
 132:	14 00       	.word	0x0014	; ????
 134:	00 00       	nop
 136:	01 05       	cpc	r16, r1
 138:	03 80       	ldd	r0, Z+3	; 0x03
 13a:	00 80       	ld	r0, Z
 13c:	00 15       	cp	r16, r0
 13e:	7c 00       	.word	0x007c	; ????
 140:	00 00       	nop
 142:	00 00       	nop
 144:	14 00       	.word	0x0014	; ????
 146:	00 00       	nop
 148:	01 05       	cpc	r16, r1
 14a:	03 81       	ldd	r16, Z+3	; 0x03
 14c:	00 80       	ld	r0, Z
 14e:	00 16       	cp	r0, r16
 150:	83 00       	.word	0x0083	; ????
 152:	00 00       	nop
 154:	00 00       	nop
 156:	14 00       	.word	0x0014	; ????
 158:	00 00       	nop
 15a:	01 05       	cpc	r16, r1
 15c:	03 82       	std	Z+3, r0	; 0x03
 15e:	00 80       	ld	r0, Z
 160:	00 17       	cp	r16, r16
 162:	8a 00       	.word	0x008a	; ????
 164:	00 00       	nop
 166:	00 00       	nop
 168:	1b 00       	.word	0x001b	; ????
 16a:	00 00       	nop
 16c:	01 05       	cpc	r16, r1
 16e:	03 84       	ldd	r0, Z+11	; 0x0b
 170:	00 80       	ld	r0, Z
 172:	00 18       	sub	r0, r0
 174:	90 00       	.word	0x0090	; ????
 176:	00 00       	nop
 178:	00 00       	nop
 17a:	1b 00       	.word	0x001b	; ????
 17c:	00 00       	nop
 17e:	01 05       	cpc	r16, r1
 180:	03 88       	ldd	r0, Z+19	; 0x13
 182:	00 80       	ld	r0, Z
 184:	00 19       	sub	r16, r0
 186:	96 00       	.word	0x0096	; ????
 188:	00 00       	nop
 18a:	00 00       	nop
 18c:	1b 00       	.word	0x001b	; ????
 18e:	00 00       	nop
 190:	01 05       	cpc	r16, r1
 192:	03 8a       	std	Z+19, r0	; 0x13
 194:	00 80       	ld	r0, Z
 196:	00 1a       	sub	r0, r16
 198:	9c 00       	.word	0x009c	; ????
 19a:	00 00       	nop
 19c:	00 00       	nop
 19e:	1b 00       	.word	0x001b	; ????
 1a0:	00 00       	nop
 1a2:	01 05       	cpc	r16, r1
 1a4:	03 86       	std	Z+11, r0	; 0x0b
 1a6:	00 80       	ld	r0, Z
 1a8:	00 1b       	sub	r16, r16
 1aa:	a1 00       	.word	0x00a1	; ????
 1ac:	00 00       	nop
 1ae:	00 00       	nop
 1b0:	14 00       	.word	0x0014	; ????
 1b2:	00 00       	nop
 1b4:	01 05       	cpc	r16, r1
 1b6:	03 43       	sbci	r16, 0x33	; 51
 1b8:	00 80       	ld	r0, Z
 1ba:	00 1c       	adc	r0, r0
 1bc:	a7 00       	.word	0x00a7	; ????
 1be:	00 00       	nop
 1c0:	00 00       	nop
 1c2:	14 00       	.word	0x0014	; ????
 1c4:	00 00       	nop
 1c6:	01 05       	cpc	r16, r1
 1c8:	03 70       	andi	r16, 0x03	; 3
 1ca:	00 80       	ld	r0, Z
 1cc:	00 1d       	adc	r16, r0
 1ce:	ae 00       	.word	0x00ae	; ????
 1d0:	00 00       	nop
 1d2:	00 00       	nop
 1d4:	14 00       	.word	0x0014	; ????
 1d6:	00 00       	nop
 1d8:	01 05       	cpc	r16, r1
 1da:	03 37       	cpi	r16, 0x73	; 115
 1dc:	00 80       	ld	r0, Z
 1de:	00 1e       	adc	r0, r16
 1e0:	b4 00       	.word	0x00b4	; ????
 1e2:	00 00       	nop
 1e4:	00 00       	nop
 1e6:	14 00       	.word	0x0014	; ????
 1e8:	00 00       	nop
 1ea:	01 05       	cpc	r16, r1
 1ec:	03 b0       	in	r0, 0x03	; 3
 1ee:	00 80       	ld	r0, Z
 1f0:	00 1f       	adc	r16, r16
 1f2:	bb 00       	.word	0x00bb	; ????
 1f4:	00 00       	nop
 1f6:	00 00       	nop
 1f8:	14 00       	.word	0x0014	; ????
 1fa:	00 00       	nop
 1fc:	01 05       	cpc	r16, r1
 1fe:	03 b1       	in	r16, 0x03	; 3
 200:	00 80       	ld	r0, Z
 202:	00 20       	and	r0, r0
 204:	c2 00       	.word	0x00c2	; ????
 206:	00 00       	nop
 208:	00 00       	nop
 20a:	14 00       	.word	0x0014	; ????
 20c:	00 00       	nop
 20e:	01 05       	cpc	r16, r1
 210:	03 b2       	in	r0, 0x13	; 19
 212:	00 80       	ld	r0, Z
 214:	00 21       	and	r16, r0
 216:	c8 00       	.word	0x00c8	; ????
 218:	00 00       	nop
 21a:	00 00       	nop
 21c:	14 00       	.word	0x0014	; ????
 21e:	00 00       	nop
 220:	01 05       	cpc	r16, r1
 222:	03 b4       	in	r0, 0x23	; 35
 224:	00 80       	ld	r0, Z
 226:	00 22       	and	r0, r16
 228:	ce 00       	.word	0x00ce	; ????
 22a:	00 00       	nop
 22c:	00 00       	nop
 22e:	14 00       	.word	0x0014	; ????
 230:	00 00       	nop
 232:	01 05       	cpc	r16, r1
 234:	03 b3       	in	r16, 0x13	; 19
 236:	00 80       	ld	r0, Z
 238:	00 23       	and	r16, r16
 23a:	d4 00       	.word	0x00d4	; ????
 23c:	00 00       	nop
 23e:	00 00       	nop
 240:	14 00       	.word	0x0014	; ????
 242:	00 00       	nop
 244:	01 05       	cpc	r16, r1
 246:	03 b6       	in	r0, 0x33	; 51
 248:	00 80       	ld	r0, Z
 24a:	00 24       	eor	r0, r0
 24c:	d9 00       	.word	0x00d9	; ????
 24e:	00 00       	nop
 250:	00 00       	nop
 252:	14 00       	.word	0x0014	; ????
 254:	00 00       	nop
 256:	01 05       	cpc	r16, r1
 258:	03 43       	sbci	r16, 0x33	; 51
 25a:	00 80       	ld	r0, Z
 25c:	00 25       	eor	r16, r0
 25e:	df 00       	.word	0x00df	; ????
 260:	00 00       	nop
 262:	00 00       	nop
 264:	14 00       	.word	0x0014	; ????
 266:	00 00       	nop
 268:	01 05       	cpc	r16, r1
 26a:	03 7c       	andi	r16, 0xC3	; 195
 26c:	00 80       	ld	r0, Z
 26e:	00 26       	eor	r0, r16
 270:	e5 00       	.word	0x00e5	; ????
 272:	00 00       	nop
 274:	00 00       	nop
 276:	1b 00       	.word	0x001b	; ????
 278:	00 00       	nop
 27a:	01 05       	cpc	r16, r1
 27c:	03 78       	andi	r16, 0x83	; 131
 27e:	00 80       	ld	r0, Z
 280:	00 27       	eor	r16, r16
 282:	e9 00       	.word	0x00e9	; ????
 284:	00 00       	nop
 286:	00 00       	nop
 288:	14 00       	.word	0x0014	; ????
 28a:	00 00       	nop
 28c:	01 05       	cpc	r16, r1
 28e:	03 7a       	andi	r16, 0xA3	; 163
 290:	00 80       	ld	r0, Z
 292:	00 28       	or	r0, r0
 294:	f0 00       	.word	0x00f0	; ????
 296:	00 00       	nop
 298:	00 00       	nop
 29a:	14 00       	.word	0x0014	; ????
 29c:	00 00       	nop
 29e:	01 05       	cpc	r16, r1
 2a0:	03 7b       	andi	r16, 0xB3	; 179
 2a2:	00 80       	ld	r0, Z
 2a4:	00 29       	or	r16, r0
 2a6:	f7 00       	.word	0x00f7	; ????
 2a8:	00 00       	nop
 2aa:	00 00       	nop
 2ac:	14 00       	.word	0x0014	; ????
 2ae:	00 00       	nop
 2b0:	01 05       	cpc	r16, r1
 2b2:	03 7e       	andi	r16, 0xE3	; 227
 2b4:	00 80       	ld	r0, Z
 2b6:	00 2a       	or	r0, r16
 2b8:	fd 00       	.word	0x00fd	; ????
 2ba:	00 00       	nop
 2bc:	00 00       	nop
 2be:	14 00       	.word	0x0014	; ????
 2c0:	00 00       	nop
 2c2:	01 05       	cpc	r16, r1
 2c4:	03 50       	subi	r16, 0x03	; 3
 2c6:	00 80       	ld	r0, Z
 2c8:	00 2b       	or	r16, r16
 2ca:	02 01       	movw	r0, r4
 2cc:	00 00       	nop
 2ce:	00 00       	nop
 2d0:	14 00       	.word	0x0014	; ????
 2d2:	00 00       	nop
 2d4:	01 05       	cpc	r16, r1
 2d6:	03 7f       	andi	r16, 0xF3	; 243
 2d8:	00 80       	ld	r0, Z
 2da:	00 2c       	mov	r0, r0
 2dc:	08 01       	movw	r0, r16
 2de:	00 00       	nop
 2e0:	00 00       	nop
 2e2:	14 00       	.word	0x0014	; ????
 2e4:	00 00       	nop
 2e6:	01 05       	cpc	r16, r1
 2e8:	03 25       	eor	r16, r3
 2ea:	00 80       	ld	r0, Z
 2ec:	00 2d       	mov	r16, r0
 2ee:	0e 01       	movw	r0, r28
 2f0:	00 00       	nop
 2f2:	00 00       	nop
 2f4:	14 00       	.word	0x0014	; ????
 2f6:	00 00       	nop
 2f8:	01 05       	cpc	r16, r1
 2fa:	03 24       	eor	r0, r3
 2fc:	00 80       	ld	r0, Z
 2fe:	00 2e       	mov	r0, r16
 300:	13 01       	movw	r2, r6
 302:	00 00       	nop
 304:	00 00       	nop
 306:	14 00       	.word	0x0014	; ????
 308:	00 00       	nop
 30a:	01 05       	cpc	r16, r1
 30c:	03 23       	and	r16, r19
 30e:	00 80       	ld	r0, Z
 310:	00 2f       	mov	r16, r16
 312:	18 01       	movw	r2, r16
 314:	00 00       	nop
 316:	00 00       	nop
 318:	14 00       	.word	0x0014	; ????
 31a:	00 00       	nop
 31c:	01 05       	cpc	r16, r1
 31e:	03 28       	or	r0, r3
 320:	00 80       	ld	r0, Z
 322:	00 30       	cpi	r16, 0x00	; 0
 324:	1e 01       	movw	r2, r28
 326:	00 00       	nop
 328:	00 00       	nop
 32a:	14 00       	.word	0x0014	; ????
 32c:	00 00       	nop
 32e:	01 05       	cpc	r16, r1
 330:	03 27       	eor	r16, r19
 332:	00 80       	ld	r0, Z
 334:	00 31       	cpi	r16, 0x10	; 16
 336:	23 01       	movw	r4, r6
 338:	00 00       	nop
 33a:	00 00       	nop
 33c:	14 00       	.word	0x0014	; ????
 33e:	00 00       	nop
 340:	01 05       	cpc	r16, r1
 342:	03 26       	eor	r0, r19
 344:	00 80       	ld	r0, Z
 346:	00 32       	cpi	r16, 0x20	; 32
 348:	28 01       	movw	r4, r16
 34a:	00 00       	nop
 34c:	00 00       	nop
 34e:	14 00       	.word	0x0014	; ????
 350:	00 00       	nop
 352:	01 05       	cpc	r16, r1
 354:	03 2b       	or	r16, r19
 356:	00 80       	ld	r0, Z
 358:	00 33       	cpi	r16, 0x30	; 48
 35a:	2e 01       	movw	r4, r28
 35c:	00 00       	nop
 35e:	00 00       	nop
 360:	14 00       	.word	0x0014	; ????
 362:	00 00       	nop
 364:	01 05       	cpc	r16, r1
 366:	03 2a       	or	r0, r19
 368:	00 80       	ld	r0, Z
 36a:	00 34       	cpi	r16, 0x40	; 64
 36c:	33 01       	movw	r6, r6
 36e:	00 00       	nop
 370:	00 00       	nop
 372:	14 00       	.word	0x0014	; ????
 374:	00 00       	nop
 376:	01 05       	cpc	r16, r1
 378:	03 29       	or	r16, r3
 37a:	00 80       	ld	r0, Z
 37c:	00 35       	cpi	r16, 0x50	; 80
 37e:	38 01       	movw	r6, r16
 380:	00 00       	nop
 382:	00 00       	nop
 384:	14 00       	.word	0x0014	; ????
 386:	00 00       	nop
 388:	01 05       	cpc	r16, r1
 38a:	03 48       	sbci	r16, 0x83	; 131
 38c:	00 80       	ld	r0, Z
 38e:	00 36       	cpi	r16, 0x60	; 96
 390:	3e 01       	movw	r6, r28
 392:	00 00       	nop
 394:	00 00       	nop
 396:	14 00       	.word	0x0014	; ????
 398:	00 00       	nop
 39a:	01 05       	cpc	r16, r1
 39c:	03 47       	sbci	r16, 0x73	; 115
 39e:	00 80       	ld	r0, Z
 3a0:	00 37       	cpi	r16, 0x70	; 112
 3a2:	44 01       	movw	r8, r8
 3a4:	00 00       	nop
 3a6:	00 00       	nop
 3a8:	14 00       	.word	0x0014	; ????
 3aa:	00 00       	nop
 3ac:	01 05       	cpc	r16, r1
 3ae:	03 46       	sbci	r16, 0x63	; 99
 3b0:	00 80       	ld	r0, Z
 3b2:	00 38       	cpi	r16, 0x80	; 128
 3b4:	4a 01       	movw	r8, r20
 3b6:	00 00       	nop
 3b8:	00 00       	nop
 3ba:	14 00       	.word	0x0014	; ????
 3bc:	00 00       	nop
 3be:	01 05       	cpc	r16, r1
 3c0:	03 45       	sbci	r16, 0x53	; 83
 3c2:	00 80       	ld	r0, Z
 3c4:	00 39       	cpi	r16, 0x90	; 144
 3c6:	51 01       	movw	r10, r2
 3c8:	00 00       	nop
 3ca:	00 00       	nop
 3cc:	14 00       	.word	0x0014	; ????
 3ce:	00 00       	nop
 3d0:	01 05       	cpc	r16, r1
 3d2:	03 44       	sbci	r16, 0x43	; 67
 3d4:	00 80       	ld	r0, Z
 3d6:	00 3a       	cpi	r16, 0xA0	; 160
 3d8:	58 01       	movw	r10, r16
 3da:	00 00       	nop
 3dc:	00 00       	nop
 3de:	14 00       	.word	0x0014	; ????
 3e0:	00 00       	nop
 3e2:	01 05       	cpc	r16, r1
 3e4:	03 6e       	ori	r16, 0xE3	; 227
 3e6:	00 80       	ld	r0, Z
 3e8:	00 3b       	cpi	r16, 0xB0	; 176
 3ea:	5f 01       	movw	r10, r30
 3ec:	00 00       	nop
 3ee:	00 00       	nop
 3f0:	14 00       	.word	0x0014	; ????
 3f2:	00 00       	nop
 3f4:	01 05       	cpc	r16, r1
 3f6:	03 35       	cpi	r16, 0x53	; 83
 3f8:	00 80       	ld	r0, Z
 3fa:	00 3c       	cpi	r16, 0xC0	; 192
 3fc:	65 01       	movw	r12, r10
 3fe:	00 00       	nop
 400:	00 00       	nop
 402:	14 00       	.word	0x0014	; ????
 404:	00 00       	nop
 406:	01 05       	cpc	r16, r1
 408:	03 43       	sbci	r16, 0x33	; 51
 40a:	00 80       	ld	r0, Z
 40c:	00 3d       	cpi	r16, 0xD0	; 208
 40e:	6b 01       	movw	r12, r22
 410:	00 00       	nop
 412:	00 00       	nop
 414:	14 00       	.word	0x0014	; ????
 416:	00 00       	nop
 418:	01 05       	cpc	r16, r1
 41a:	03 69       	ori	r16, 0x93	; 147
 41c:	00 80       	ld	r0, Z
 41e:	00 3e       	cpi	r16, 0xE0	; 224
 420:	71 01       	movw	r14, r2
 422:	00 00       	nop
 424:	00 00       	nop
 426:	14 00       	.word	0x0014	; ????
 428:	00 00       	nop
 42a:	01 05       	cpc	r16, r1
 42c:	03 3d       	cpi	r16, 0xD3	; 211
 42e:	00 80       	ld	r0, Z
 430:	00 3f       	cpi	r16, 0xF0	; 240
 432:	77 01       	movw	r14, r14
 434:	00 00       	nop
 436:	00 00       	nop
 438:	14 00       	.word	0x0014	; ????
 43a:	00 00       	nop
 43c:	01 05       	cpc	r16, r1
 43e:	03 3c       	cpi	r16, 0xC3	; 195
 440:	00 80       	ld	r0, Z
 442:	00 40       	sbci	r16, 0x00	; 0
 444:	7c 01       	movw	r14, r24
 446:	00 00       	nop
 448:	00 00       	nop
 44a:	14 00       	.word	0x0014	; ????
 44c:	00 00       	nop
 44e:	01 05       	cpc	r16, r1
 450:	03 68       	ori	r16, 0x83	; 131
 452:	00 80       	ld	r0, Z
 454:	00 41       	sbci	r16, 0x10	; 16
 456:	82 01       	movw	r16, r4
 458:	00 00       	nop
 45a:	00 00       	nop
 45c:	14 00       	.word	0x0014	; ????
 45e:	00 00       	nop
 460:	01 05       	cpc	r16, r1
 462:	03 6d       	ori	r16, 0xD3	; 211
 464:	00 80       	ld	r0, Z
 466:	00 42       	sbci	r16, 0x20	; 32
 468:	89 01       	movw	r16, r18
 46a:	00 00       	nop
 46c:	00 00       	nop
 46e:	14 00       	.word	0x0014	; ????
 470:	00 00       	nop
 472:	01 05       	cpc	r16, r1
 474:	03 6c       	ori	r16, 0xC3	; 195
 476:	00 80       	ld	r0, Z
 478:	00 43       	sbci	r16, 0x30	; 48
 47a:	90 01       	movw	r18, r0
 47c:	00 00       	nop
 47e:	00 00       	nop
 480:	14 00       	.word	0x0014	; ????
 482:	00 00       	nop
 484:	01 05       	cpc	r16, r1
 486:	03 6b       	ori	r16, 0xB3	; 179
 488:	00 80       	ld	r0, Z
 48a:	00 44       	sbci	r16, 0x40	; 64
 48c:	97 01       	movw	r18, r14
 48e:	00 00       	nop
 490:	00 00       	nop
 492:	14 00       	.word	0x0014	; ????
 494:	00 00       	nop
 496:	01 05       	cpc	r16, r1
 498:	03 3b       	cpi	r16, 0xB3	; 179
 49a:	00 80       	ld	r0, Z
 49c:	00 45       	sbci	r16, 0x50	; 80
 49e:	9d 01       	movw	r18, r26
 4a0:	00 00       	nop
 4a2:	00 00       	nop
 4a4:	14 00       	.word	0x0014	; ????
 4a6:	00 00       	nop
 4a8:	01 05       	cpc	r16, r1
 4aa:	03 4e       	sbci	r16, 0xE3	; 227
 4ac:	00 80       	ld	r0, Z
 4ae:	00 46       	sbci	r16, 0x60	; 96
 4b0:	a2 01       	movw	r20, r4
 4b2:	00 00       	nop
 4b4:	00 00       	nop
 4b6:	14 00       	.word	0x0014	; ????
 4b8:	00 00       	nop
 4ba:	01 05       	cpc	r16, r1
 4bc:	03 4d       	sbci	r16, 0xD3	; 211
 4be:	00 80       	ld	r0, Z
 4c0:	00 47       	sbci	r16, 0x70	; 112
 4c2:	a7 01       	movw	r20, r14
 4c4:	00 00       	nop
 4c6:	00 00       	nop
 4c8:	14 00       	.word	0x0014	; ????
 4ca:	00 00       	nop
 4cc:	01 05       	cpc	r16, r1
 4ce:	03 4c       	sbci	r16, 0xC3	; 195
 4d0:	00 80       	ld	r0, Z
 4d2:	00 48       	sbci	r16, 0x80	; 128
 4d4:	ac 01       	movw	r20, r24
 4d6:	00 00       	nop
 4d8:	00 00       	nop
 4da:	14 00       	.word	0x0014	; ????
 4dc:	00 00       	nop
 4de:	01 05       	cpc	r16, r1
 4e0:	03 60       	ori	r16, 0x03	; 3
 4e2:	00 80       	ld	r0, Z
 4e4:	00 49       	sbci	r16, 0x90	; 144
 4e6:	b3 01       	movw	r22, r6
 4e8:	00 00       	nop
 4ea:	00 00       	nop
 4ec:	14 00       	.word	0x0014	; ????
 4ee:	00 00       	nop
 4f0:	01 05       	cpc	r16, r1
 4f2:	03 64       	ori	r16, 0x43	; 67
 4f4:	00 80       	ld	r0, Z
 4f6:	00 4a       	sbci	r16, 0xA0	; 160
 4f8:	b7 01       	movw	r22, r14
 4fa:	00 00       	nop
 4fc:	00 00       	nop
 4fe:	14 00       	.word	0x0014	; ????
 500:	00 00       	nop
 502:	01 05       	cpc	r16, r1
 504:	03 66       	ori	r16, 0x63	; 99
 506:	00 80       	ld	r0, Z
 508:	00 4b       	sbci	r16, 0xB0	; 176
 50a:	be 01       	movw	r22, r28
 50c:	00 00       	nop
 50e:	00 00       	nop
 510:	14 00       	.word	0x0014	; ????
 512:	00 00       	nop
 514:	01 05       	cpc	r16, r1
 516:	03 61       	ori	r16, 0x13	; 19
 518:	00 80       	ld	r0, Z
 51a:	00 4c       	sbci	r16, 0xC0	; 192
 51c:	c4 01       	movw	r24, r8
 51e:	00 00       	nop
 520:	00 00       	nop
 522:	14 00       	.word	0x0014	; ????
 524:	00 00       	nop
 526:	01 05       	cpc	r16, r1
 528:	03 5f       	subi	r16, 0xF3	; 243
 52a:	00 80       	ld	r0, Z
 52c:	00 4d       	sbci	r16, 0xD0	; 208
 52e:	c9 01       	movw	r24, r18
 530:	00 00       	nop
 532:	00 00       	nop
 534:	1b 00       	.word	0x001b	; ????
 536:	00 00       	nop
 538:	01 05       	cpc	r16, r1
 53a:	03 5d       	subi	r16, 0xD3	; 211
 53c:	00 80       	ld	r0, Z
 53e:	00 4e       	sbci	r16, 0xE0	; 224
 540:	cc 01       	movw	r24, r24
 542:	00 00       	nop
 544:	00 00       	nop
 546:	14 00       	.word	0x0014	; ????
 548:	00 00       	nop
 54a:	01 05       	cpc	r16, r1
 54c:	03 57       	subi	r16, 0x73	; 115
 54e:	00 80       	ld	r0, Z
 550:	00 4f       	sbci	r16, 0xF0	; 240
 552:	d3 01       	movw	r26, r6
 554:	00 00       	nop
 556:	00 00       	nop
 558:	14 00       	.word	0x0014	; ????
 55a:	00 00       	nop
 55c:	01 05       	cpc	r16, r1
 55e:	03 55       	subi	r16, 0x53	; 83
 560:	00 80       	ld	r0, Z
 562:	00 50       	subi	r16, 0x00	; 0
 564:	d9 01       	movw	r26, r18
 566:	00 00       	nop
 568:	00 00       	nop
 56a:	14 00       	.word	0x0014	; ????
 56c:	00 00       	nop
 56e:	01 05       	cpc	r16, r1
 570:	03 54       	subi	r16, 0x43	; 67
 572:	00 80       	ld	r0, Z
 574:	00 51       	subi	r16, 0x10	; 16
 576:	df 01       	movw	r26, r30
 578:	00 00       	nop
 57a:	00 00       	nop
 57c:	14 00       	.word	0x0014	; ????
 57e:	00 00       	nop
 580:	01 05       	cpc	r16, r1
 582:	03 53       	subi	r16, 0x33	; 51
 584:	00 80       	ld	r0, Z
 586:	00 52       	subi	r16, 0x20	; 32
 588:	e4 01       	movw	r28, r8
 58a:	00 00       	nop
 58c:	00 00       	nop
 58e:	14 00       	.word	0x0014	; ????
 590:	00 00       	nop
 592:	01 05       	cpc	r16, r1
 594:	03 4b       	sbci	r16, 0xB3	; 179
 596:	00 80       	ld	r0, Z
 598:	00 53       	subi	r16, 0x30	; 48
 59a:	eb 01       	movw	r28, r22
 59c:	00 00       	nop
 59e:	00 00       	nop
 5a0:	14 00       	.word	0x0014	; ????
 5a2:	00 00       	nop
 5a4:	01 05       	cpc	r16, r1
 5a6:	03 4a       	sbci	r16, 0xA3	; 163
 5a8:	00 80       	ld	r0, Z
 5aa:	00 54       	subi	r16, 0x40	; 64
 5ac:	f2 01       	movw	r30, r4
 5ae:	00 00       	nop
 5b0:	00 00       	nop
 5b2:	14 00       	.word	0x0014	; ????
 5b4:	00 00       	nop
 5b6:	01 05       	cpc	r16, r1
 5b8:	03 3e       	cpi	r16, 0xE3	; 227
 5ba:	00 80       	ld	r0, Z
 5bc:	00 55       	subi	r16, 0x50	; 80
 5be:	f9 01       	movw	r30, r18
 5c0:	00 00       	nop
 5c2:	00 00       	nop
 5c4:	1b 00       	.word	0x001b	; ????
 5c6:	00 00       	nop
 5c8:	01 05       	cpc	r16, r1
 5ca:	03 41       	sbci	r16, 0x13	; 19
 5cc:	00 80       	ld	r0, Z
 5ce:	00 56       	subi	r16, 0x60	; 96
 5d0:	fe 01       	movw	r30, r28
 5d2:	00 00       	nop
 5d4:	00 00       	nop
 5d6:	14 00       	.word	0x0014	; ????
 5d8:	00 00       	nop
 5da:	01 05       	cpc	r16, r1
 5dc:	03 40       	sbci	r16, 0x03	; 3
 5de:	00 80       	ld	r0, Z
 5e0:	00 57       	subi	r16, 0x70	; 112
 5e2:	03 02       	muls	r16, r19
 5e4:	00 00       	nop
 5e6:	00 00       	nop
 5e8:	14 00       	.word	0x0014	; ????
 5ea:	00 00       	nop
 5ec:	01 05       	cpc	r16, r1
 5ee:	03 3f       	cpi	r16, 0xF3	; 243
 5f0:	00 80       	ld	r0, Z
	...

Disassembly of section .debug_abbrev:

00000000 <.Ldebug_abbrev0>:
   0:	01 11       	cpse	r16, r1
   2:	01 25       	eor	r16, r1
   4:	0e 10       	cpse	r0, r14
   6:	06 00       	.word	0x0006	; ????
   8:	00 02       	muls	r16, r16
   a:	24 00       	.word	0x0024	; ????
   c:	03 0e       	add	r0, r19
   e:	0b 0b       	sbc	r16, r27
  10:	3e 0b       	sbc	r19, r30
  12:	00 00       	nop
  14:	03 24       	eor	r0, r3
  16:	00 03       	mulsu	r16, r16
  18:	0e 0b       	sbc	r16, r30
  1a:	0b 3e       	cpi	r16, 0xEB	; 235
  1c:	0b 00       	.word	0x000b	; ????
  1e:	00 04       	cpc	r0, r0
  20:	01 01       	movw	r0, r2
  22:	49 13       	cpse	r20, r25
  24:	00 00       	nop
  26:	05 21       	and	r16, r5
  28:	00 49       	sbci	r16, 0x90	; 144
  2a:	13 2f       	mov	r17, r19
  2c:	05 00       	.word	0x0005	; ????
  2e:	00 06       	cpc	r0, r16
  30:	34 00       	.word	0x0034	; ????
  32:	03 0e       	add	r0, r19
  34:	3a 0b       	sbc	r19, r26
  36:	3b 0b       	sbc	r19, r27
  38:	49 13       	cpse	r20, r25
  3a:	3f 0c       	add	r3, r15
  3c:	02 0a       	sbc	r0, r18
  3e:	00 00       	nop
  40:	07 34       	cpi	r16, 0x47	; 71
  42:	00 03       	mulsu	r16, r16
  44:	0e 3a       	cpi	r16, 0xAE	; 174
  46:	0b 3b       	cpi	r16, 0xBB	; 187
  48:	0b 49       	sbci	r16, 0x9B	; 155
  4a:	13 3f       	cpi	r17, 0xF3	; 243
  4c:	0c 02       	muls	r16, r28
  4e:	0a 00       	.word	0x000a	; ????
  50:	00 08       	sbc	r0, r0
  52:	34 00       	.word	0x0034	; ????
  54:	03 0e       	add	r0, r19
  56:	3a 0b       	sbc	r19, r26
  58:	3b 0b       	sbc	r19, r27
  5a:	49 13       	cpse	r20, r25
  5c:	3f 0c       	add	r3, r15
  5e:	02 0a       	sbc	r0, r18
  60:	00 00       	nop
  62:	09 34       	cpi	r16, 0x49	; 73
  64:	00 03       	mulsu	r16, r16
  66:	0e 3a       	cpi	r16, 0xAE	; 174
  68:	0b 3b       	cpi	r16, 0xBB	; 187
  6a:	0b 49       	sbci	r16, 0x9B	; 155
  6c:	13 3f       	cpi	r17, 0xF3	; 243
  6e:	0c 02       	muls	r16, r28
  70:	0a 00       	.word	0x000a	; ????
  72:	00 0a       	sbc	r0, r16
  74:	34 00       	.word	0x0034	; ????
  76:	03 0e       	add	r0, r19
  78:	3a 0b       	sbc	r19, r26
  7a:	3b 0b       	sbc	r19, r27
  7c:	49 13       	cpse	r20, r25
  7e:	3f 0c       	add	r3, r15
  80:	02 0a       	sbc	r0, r18
  82:	00 00       	nop
  84:	0b 34       	cpi	r16, 0x4B	; 75
  86:	00 03       	mulsu	r16, r16
  88:	0e 3a       	cpi	r16, 0xAE	; 174
  8a:	0b 3b       	cpi	r16, 0xBB	; 187
  8c:	0b 49       	sbci	r16, 0x9B	; 155
  8e:	13 3f       	cpi	r17, 0xF3	; 243
  90:	0c 02       	muls	r16, r28
  92:	0a 00       	.word	0x000a	; ????
  94:	00 0c       	add	r0, r0
  96:	34 00       	.word	0x0034	; ????
  98:	03 0e       	add	r0, r19
  9a:	3a 0b       	sbc	r19, r26
  9c:	3b 0b       	sbc	r19, r27
  9e:	49 13       	cpse	r20, r25
  a0:	3f 0c       	add	r3, r15
  a2:	02 0a       	sbc	r0, r18
  a4:	00 00       	nop
  a6:	0d 34       	cpi	r16, 0x4D	; 77
  a8:	00 03       	mulsu	r16, r16
  aa:	0e 3a       	cpi	r16, 0xAE	; 174
  ac:	0b 3b       	cpi	r16, 0xBB	; 187
  ae:	0b 49       	sbci	r16, 0x9B	; 155
  b0:	13 3f       	cpi	r17, 0xF3	; 243
  b2:	0c 02       	muls	r16, r28
  b4:	0a 00       	.word	0x000a	; ????
  b6:	00 0e       	add	r0, r16
  b8:	34 00       	.word	0x0034	; ????
  ba:	03 0e       	add	r0, r19
  bc:	3a 0b       	sbc	r19, r26
  be:	3b 0b       	sbc	r19, r27
  c0:	49 13       	cpse	r20, r25
  c2:	3f 0c       	add	r3, r15
  c4:	02 0a       	sbc	r0, r18
  c6:	00 00       	nop
  c8:	0f 34       	cpi	r16, 0x4F	; 79
  ca:	00 03       	mulsu	r16, r16
  cc:	0e 3a       	cpi	r16, 0xAE	; 174
  ce:	0b 3b       	cpi	r16, 0xBB	; 187
  d0:	0b 49       	sbci	r16, 0x9B	; 155
  d2:	13 3f       	cpi	r17, 0xF3	; 243
  d4:	0c 02       	muls	r16, r28
  d6:	0a 00       	.word	0x000a	; ????
  d8:	00 10       	cpse	r0, r0
  da:	34 00       	.word	0x0034	; ????
  dc:	03 0e       	add	r0, r19
  de:	3a 0b       	sbc	r19, r26
  e0:	3b 0b       	sbc	r19, r27
  e2:	49 13       	cpse	r20, r25
  e4:	3f 0c       	add	r3, r15
  e6:	02 0a       	sbc	r0, r18
  e8:	00 00       	nop
  ea:	11 34       	cpi	r17, 0x41	; 65
  ec:	00 03       	mulsu	r16, r16
  ee:	0e 3a       	cpi	r16, 0xAE	; 174
  f0:	0b 3b       	cpi	r16, 0xBB	; 187
  f2:	0b 49       	sbci	r16, 0x9B	; 155
  f4:	13 3f       	cpi	r17, 0xF3	; 243
  f6:	0c 02       	muls	r16, r28
  f8:	0a 00       	.word	0x000a	; ????
  fa:	00 12       	cpse	r0, r16
  fc:	34 00       	.word	0x0034	; ????
  fe:	03 0e       	add	r0, r19
 100:	3a 0b       	sbc	r19, r26
 102:	3b 0b       	sbc	r19, r27
 104:	49 13       	cpse	r20, r25
 106:	3f 0c       	add	r3, r15
 108:	02 0a       	sbc	r0, r18
 10a:	00 00       	nop
 10c:	13 34       	cpi	r17, 0x43	; 67
 10e:	00 03       	mulsu	r16, r16
 110:	0e 3a       	cpi	r16, 0xAE	; 174
 112:	0b 3b       	cpi	r16, 0xBB	; 187
 114:	0b 49       	sbci	r16, 0x9B	; 155
 116:	13 3f       	cpi	r17, 0xF3	; 243
 118:	0c 02       	muls	r16, r28
 11a:	0a 00       	.word	0x000a	; ????
 11c:	00 14       	cp	r0, r0
 11e:	34 00       	.word	0x0034	; ????
 120:	03 0e       	add	r0, r19
 122:	3a 0b       	sbc	r19, r26
 124:	3b 0b       	sbc	r19, r27
 126:	49 13       	cpse	r20, r25
 128:	3f 0c       	add	r3, r15
 12a:	02 0a       	sbc	r0, r18
 12c:	00 00       	nop
 12e:	15 34       	cpi	r17, 0x45	; 69
 130:	00 03       	mulsu	r16, r16
 132:	0e 3a       	cpi	r16, 0xAE	; 174
 134:	0b 3b       	cpi	r16, 0xBB	; 187
 136:	0b 49       	sbci	r16, 0x9B	; 155
 138:	13 3f       	cpi	r17, 0xF3	; 243
 13a:	0c 02       	muls	r16, r28
 13c:	0a 00       	.word	0x000a	; ????
 13e:	00 16       	cp	r0, r16
 140:	34 00       	.word	0x0034	; ????
 142:	03 0e       	add	r0, r19
 144:	3a 0b       	sbc	r19, r26
 146:	3b 0b       	sbc	r19, r27
 148:	49 13       	cpse	r20, r25
 14a:	3f 0c       	add	r3, r15
 14c:	02 0a       	sbc	r0, r18
 14e:	00 00       	nop
 150:	17 34       	cpi	r17, 0x47	; 71
 152:	00 03       	mulsu	r16, r16
 154:	0e 3a       	cpi	r16, 0xAE	; 174
 156:	0b 3b       	cpi	r16, 0xBB	; 187
 158:	0b 49       	sbci	r16, 0x9B	; 155
 15a:	13 3f       	cpi	r17, 0xF3	; 243
 15c:	0c 02       	muls	r16, r28
 15e:	0a 00       	.word	0x000a	; ????
 160:	00 18       	sub	r0, r0
 162:	34 00       	.word	0x0034	; ????
 164:	03 0e       	add	r0, r19
 166:	3a 0b       	sbc	r19, r26
 168:	3b 0b       	sbc	r19, r27
 16a:	49 13       	cpse	r20, r25
 16c:	3f 0c       	add	r3, r15
 16e:	02 0a       	sbc	r0, r18
 170:	00 00       	nop
 172:	19 34       	cpi	r17, 0x49	; 73
 174:	00 03       	mulsu	r16, r16
 176:	0e 3a       	cpi	r16, 0xAE	; 174
 178:	0b 3b       	cpi	r16, 0xBB	; 187
 17a:	0b 49       	sbci	r16, 0x9B	; 155
 17c:	13 3f       	cpi	r17, 0xF3	; 243
 17e:	0c 02       	muls	r16, r28
 180:	0a 00       	.word	0x000a	; ????
 182:	00 1a       	sub	r0, r16
 184:	34 00       	.word	0x0034	; ????
 186:	03 0e       	add	r0, r19
 188:	3a 0b       	sbc	r19, r26
 18a:	3b 0b       	sbc	r19, r27
 18c:	49 13       	cpse	r20, r25
 18e:	3f 0c       	add	r3, r15
 190:	02 0a       	sbc	r0, r18
 192:	00 00       	nop
 194:	1b 34       	cpi	r17, 0x4B	; 75
 196:	00 03       	mulsu	r16, r16
 198:	0e 3a       	cpi	r16, 0xAE	; 174
 19a:	0b 3b       	cpi	r16, 0xBB	; 187
 19c:	0b 49       	sbci	r16, 0x9B	; 155
 19e:	13 3f       	cpi	r17, 0xF3	; 243
 1a0:	0c 02       	muls	r16, r28
 1a2:	0a 00       	.word	0x000a	; ????
 1a4:	00 1c       	adc	r0, r0
 1a6:	34 00       	.word	0x0034	; ????
 1a8:	03 0e       	add	r0, r19
 1aa:	3a 0b       	sbc	r19, r26
 1ac:	3b 0b       	sbc	r19, r27
 1ae:	49 13       	cpse	r20, r25
 1b0:	3f 0c       	add	r3, r15
 1b2:	02 0a       	sbc	r0, r18
 1b4:	00 00       	nop
 1b6:	1d 34       	cpi	r17, 0x4D	; 77
 1b8:	00 03       	mulsu	r16, r16
 1ba:	0e 3a       	cpi	r16, 0xAE	; 174
 1bc:	0b 3b       	cpi	r16, 0xBB	; 187
 1be:	0b 49       	sbci	r16, 0x9B	; 155
 1c0:	13 3f       	cpi	r17, 0xF3	; 243
 1c2:	0c 02       	muls	r16, r28
 1c4:	0a 00       	.word	0x000a	; ????
 1c6:	00 1e       	adc	r0, r16
 1c8:	34 00       	.word	0x0034	; ????
 1ca:	03 0e       	add	r0, r19
 1cc:	3a 0b       	sbc	r19, r26
 1ce:	3b 0b       	sbc	r19, r27
 1d0:	49 13       	cpse	r20, r25
 1d2:	3f 0c       	add	r3, r15
 1d4:	02 0a       	sbc	r0, r18
 1d6:	00 00       	nop
 1d8:	1f 34       	cpi	r17, 0x4F	; 79
 1da:	00 03       	mulsu	r16, r16
 1dc:	0e 3a       	cpi	r16, 0xAE	; 174
 1de:	0b 3b       	cpi	r16, 0xBB	; 187
 1e0:	0b 49       	sbci	r16, 0x9B	; 155
 1e2:	13 3f       	cpi	r17, 0xF3	; 243
 1e4:	0c 02       	muls	r16, r28
 1e6:	0a 00       	.word	0x000a	; ????
 1e8:	00 20       	and	r0, r0
 1ea:	34 00       	.word	0x0034	; ????
 1ec:	03 0e       	add	r0, r19
 1ee:	3a 0b       	sbc	r19, r26
 1f0:	3b 0b       	sbc	r19, r27
 1f2:	49 13       	cpse	r20, r25
 1f4:	3f 0c       	add	r3, r15
 1f6:	02 0a       	sbc	r0, r18
 1f8:	00 00       	nop
 1fa:	21 34       	cpi	r18, 0x41	; 65
 1fc:	00 03       	mulsu	r16, r16
 1fe:	0e 3a       	cpi	r16, 0xAE	; 174
 200:	0b 3b       	cpi	r16, 0xBB	; 187
 202:	0b 49       	sbci	r16, 0x9B	; 155
 204:	13 3f       	cpi	r17, 0xF3	; 243
 206:	0c 02       	muls	r16, r28
 208:	0a 00       	.word	0x000a	; ????
 20a:	00 22       	and	r0, r16
 20c:	34 00       	.word	0x0034	; ????
 20e:	03 0e       	add	r0, r19
 210:	3a 0b       	sbc	r19, r26
 212:	3b 0b       	sbc	r19, r27
 214:	49 13       	cpse	r20, r25
 216:	3f 0c       	add	r3, r15
 218:	02 0a       	sbc	r0, r18
 21a:	00 00       	nop
 21c:	23 34       	cpi	r18, 0x43	; 67
 21e:	00 03       	mulsu	r16, r16
 220:	0e 3a       	cpi	r16, 0xAE	; 174
 222:	0b 3b       	cpi	r16, 0xBB	; 187
 224:	0b 49       	sbci	r16, 0x9B	; 155
 226:	13 3f       	cpi	r17, 0xF3	; 243
 228:	0c 02       	muls	r16, r28
 22a:	0a 00       	.word	0x000a	; ????
 22c:	00 24       	eor	r0, r0
 22e:	34 00       	.word	0x0034	; ????
 230:	03 0e       	add	r0, r19
 232:	3a 0b       	sbc	r19, r26
 234:	3b 0b       	sbc	r19, r27
 236:	49 13       	cpse	r20, r25
 238:	3f 0c       	add	r3, r15
 23a:	02 0a       	sbc	r0, r18
 23c:	00 00       	nop
 23e:	25 34       	cpi	r18, 0x45	; 69
 240:	00 03       	mulsu	r16, r16
 242:	0e 3a       	cpi	r16, 0xAE	; 174
 244:	0b 3b       	cpi	r16, 0xBB	; 187
 246:	0b 49       	sbci	r16, 0x9B	; 155
 248:	13 3f       	cpi	r17, 0xF3	; 243
 24a:	0c 02       	muls	r16, r28
 24c:	0a 00       	.word	0x000a	; ????
 24e:	00 26       	eor	r0, r16
 250:	34 00       	.word	0x0034	; ????
 252:	03 0e       	add	r0, r19
 254:	3a 0b       	sbc	r19, r26
 256:	3b 0b       	sbc	r19, r27
 258:	49 13       	cpse	r20, r25
 25a:	3f 0c       	add	r3, r15
 25c:	02 0a       	sbc	r0, r18
 25e:	00 00       	nop
 260:	27 34       	cpi	r18, 0x47	; 71
 262:	00 03       	mulsu	r16, r16
 264:	0e 3a       	cpi	r16, 0xAE	; 174
 266:	0b 3b       	cpi	r16, 0xBB	; 187
 268:	0b 49       	sbci	r16, 0x9B	; 155
 26a:	13 3f       	cpi	r17, 0xF3	; 243
 26c:	0c 02       	muls	r16, r28
 26e:	0a 00       	.word	0x000a	; ????
 270:	00 28       	or	r0, r0
 272:	34 00       	.word	0x0034	; ????
 274:	03 0e       	add	r0, r19
 276:	3a 0b       	sbc	r19, r26
 278:	3b 0b       	sbc	r19, r27
 27a:	49 13       	cpse	r20, r25
 27c:	3f 0c       	add	r3, r15
 27e:	02 0a       	sbc	r0, r18
 280:	00 00       	nop
 282:	29 34       	cpi	r18, 0x49	; 73
 284:	00 03       	mulsu	r16, r16
 286:	0e 3a       	cpi	r16, 0xAE	; 174
 288:	0b 3b       	cpi	r16, 0xBB	; 187
 28a:	0b 49       	sbci	r16, 0x9B	; 155
 28c:	13 3f       	cpi	r17, 0xF3	; 243
 28e:	0c 02       	muls	r16, r28
 290:	0a 00       	.word	0x000a	; ????
 292:	00 2a       	or	r0, r16
 294:	34 00       	.word	0x0034	; ????
 296:	03 0e       	add	r0, r19
 298:	3a 0b       	sbc	r19, r26
 29a:	3b 0b       	sbc	r19, r27
 29c:	49 13       	cpse	r20, r25
 29e:	3f 0c       	add	r3, r15
 2a0:	02 0a       	sbc	r0, r18
 2a2:	00 00       	nop
 2a4:	2b 34       	cpi	r18, 0x4B	; 75
 2a6:	00 03       	mulsu	r16, r16
 2a8:	0e 3a       	cpi	r16, 0xAE	; 174
 2aa:	0b 3b       	cpi	r16, 0xBB	; 187
 2ac:	0b 49       	sbci	r16, 0x9B	; 155
 2ae:	13 3f       	cpi	r17, 0xF3	; 243
 2b0:	0c 02       	muls	r16, r28
 2b2:	0a 00       	.word	0x000a	; ????
 2b4:	00 2c       	mov	r0, r0
 2b6:	34 00       	.word	0x0034	; ????
 2b8:	03 0e       	add	r0, r19
 2ba:	3a 0b       	sbc	r19, r26
 2bc:	3b 0b       	sbc	r19, r27
 2be:	49 13       	cpse	r20, r25
 2c0:	3f 0c       	add	r3, r15
 2c2:	02 0a       	sbc	r0, r18
 2c4:	00 00       	nop
 2c6:	2d 34       	cpi	r18, 0x4D	; 77
 2c8:	00 03       	mulsu	r16, r16
 2ca:	0e 3a       	cpi	r16, 0xAE	; 174
 2cc:	0b 3b       	cpi	r16, 0xBB	; 187
 2ce:	0b 49       	sbci	r16, 0x9B	; 155
 2d0:	13 3f       	cpi	r17, 0xF3	; 243
 2d2:	0c 02       	muls	r16, r28
 2d4:	0a 00       	.word	0x000a	; ????
 2d6:	00 2e       	mov	r0, r16
 2d8:	34 00       	.word	0x0034	; ????
 2da:	03 0e       	add	r0, r19
 2dc:	3a 0b       	sbc	r19, r26
 2de:	3b 0b       	sbc	r19, r27
 2e0:	49 13       	cpse	r20, r25
 2e2:	3f 0c       	add	r3, r15
 2e4:	02 0a       	sbc	r0, r18
 2e6:	00 00       	nop
 2e8:	2f 34       	cpi	r18, 0x4F	; 79
 2ea:	00 03       	mulsu	r16, r16
 2ec:	0e 3a       	cpi	r16, 0xAE	; 174
 2ee:	0b 3b       	cpi	r16, 0xBB	; 187
 2f0:	0b 49       	sbci	r16, 0x9B	; 155
 2f2:	13 3f       	cpi	r17, 0xF3	; 243
 2f4:	0c 02       	muls	r16, r28
 2f6:	0a 00       	.word	0x000a	; ????
 2f8:	00 30       	cpi	r16, 0x00	; 0
 2fa:	34 00       	.word	0x0034	; ????
 2fc:	03 0e       	add	r0, r19
 2fe:	3a 0b       	sbc	r19, r26
 300:	3b 0b       	sbc	r19, r27
 302:	49 13       	cpse	r20, r25
 304:	3f 0c       	add	r3, r15
 306:	02 0a       	sbc	r0, r18
 308:	00 00       	nop
 30a:	31 34       	cpi	r19, 0x41	; 65
 30c:	00 03       	mulsu	r16, r16
 30e:	0e 3a       	cpi	r16, 0xAE	; 174
 310:	0b 3b       	cpi	r16, 0xBB	; 187
 312:	0b 49       	sbci	r16, 0x9B	; 155
 314:	13 3f       	cpi	r17, 0xF3	; 243
 316:	0c 02       	muls	r16, r28
 318:	0a 00       	.word	0x000a	; ????
 31a:	00 32       	cpi	r16, 0x20	; 32
 31c:	34 00       	.word	0x0034	; ????
 31e:	03 0e       	add	r0, r19
 320:	3a 0b       	sbc	r19, r26
 322:	3b 0b       	sbc	r19, r27
 324:	49 13       	cpse	r20, r25
 326:	3f 0c       	add	r3, r15
 328:	02 0a       	sbc	r0, r18
 32a:	00 00       	nop
 32c:	33 34       	cpi	r19, 0x43	; 67
 32e:	00 03       	mulsu	r16, r16
 330:	0e 3a       	cpi	r16, 0xAE	; 174
 332:	0b 3b       	cpi	r16, 0xBB	; 187
 334:	0b 49       	sbci	r16, 0x9B	; 155
 336:	13 3f       	cpi	r17, 0xF3	; 243
 338:	0c 02       	muls	r16, r28
 33a:	0a 00       	.word	0x000a	; ????
 33c:	00 34       	cpi	r16, 0x40	; 64
 33e:	34 00       	.word	0x0034	; ????
 340:	03 0e       	add	r0, r19
 342:	3a 0b       	sbc	r19, r26
 344:	3b 0b       	sbc	r19, r27
 346:	49 13       	cpse	r20, r25
 348:	3f 0c       	add	r3, r15
 34a:	02 0a       	sbc	r0, r18
 34c:	00 00       	nop
 34e:	35 34       	cpi	r19, 0x45	; 69
 350:	00 03       	mulsu	r16, r16
 352:	0e 3a       	cpi	r16, 0xAE	; 174
 354:	0b 3b       	cpi	r16, 0xBB	; 187
 356:	0b 49       	sbci	r16, 0x9B	; 155
 358:	13 3f       	cpi	r17, 0xF3	; 243
 35a:	0c 02       	muls	r16, r28
 35c:	0a 00       	.word	0x000a	; ????
 35e:	00 36       	cpi	r16, 0x60	; 96
 360:	34 00       	.word	0x0034	; ????
 362:	03 0e       	add	r0, r19
 364:	3a 0b       	sbc	r19, r26
 366:	3b 0b       	sbc	r19, r27
 368:	49 13       	cpse	r20, r25
 36a:	3f 0c       	add	r3, r15
 36c:	02 0a       	sbc	r0, r18
 36e:	00 00       	nop
 370:	37 34       	cpi	r19, 0x47	; 71
 372:	00 03       	mulsu	r16, r16
 374:	0e 3a       	cpi	r16, 0xAE	; 174
 376:	0b 3b       	cpi	r16, 0xBB	; 187
 378:	0b 49       	sbci	r16, 0x9B	; 155
 37a:	13 3f       	cpi	r17, 0xF3	; 243
 37c:	0c 02       	muls	r16, r28
 37e:	0a 00       	.word	0x000a	; ????
 380:	00 38       	cpi	r16, 0x80	; 128
 382:	34 00       	.word	0x0034	; ????
 384:	03 0e       	add	r0, r19
 386:	3a 0b       	sbc	r19, r26
 388:	3b 0b       	sbc	r19, r27
 38a:	49 13       	cpse	r20, r25
 38c:	3f 0c       	add	r3, r15
 38e:	02 0a       	sbc	r0, r18
 390:	00 00       	nop
 392:	39 34       	cpi	r19, 0x49	; 73
 394:	00 03       	mulsu	r16, r16
 396:	0e 3a       	cpi	r16, 0xAE	; 174
 398:	0b 3b       	cpi	r16, 0xBB	; 187
 39a:	0b 49       	sbci	r16, 0x9B	; 155
 39c:	13 3f       	cpi	r17, 0xF3	; 243
 39e:	0c 02       	muls	r16, r28
 3a0:	0a 00       	.word	0x000a	; ????
 3a2:	00 3a       	cpi	r16, 0xA0	; 160
 3a4:	34 00       	.word	0x0034	; ????
 3a6:	03 0e       	add	r0, r19
 3a8:	3a 0b       	sbc	r19, r26
 3aa:	3b 0b       	sbc	r19, r27
 3ac:	49 13       	cpse	r20, r25
 3ae:	3f 0c       	add	r3, r15
 3b0:	02 0a       	sbc	r0, r18
 3b2:	00 00       	nop
 3b4:	3b 34       	cpi	r19, 0x4B	; 75
 3b6:	00 03       	mulsu	r16, r16
 3b8:	0e 3a       	cpi	r16, 0xAE	; 174
 3ba:	0b 3b       	cpi	r16, 0xBB	; 187
 3bc:	0b 49       	sbci	r16, 0x9B	; 155
 3be:	13 3f       	cpi	r17, 0xF3	; 243
 3c0:	0c 02       	muls	r16, r28
 3c2:	0a 00       	.word	0x000a	; ????
 3c4:	00 3c       	cpi	r16, 0xC0	; 192
 3c6:	34 00       	.word	0x0034	; ????
 3c8:	03 0e       	add	r0, r19
 3ca:	3a 0b       	sbc	r19, r26
 3cc:	3b 0b       	sbc	r19, r27
 3ce:	49 13       	cpse	r20, r25
 3d0:	3f 0c       	add	r3, r15
 3d2:	02 0a       	sbc	r0, r18
 3d4:	00 00       	nop
 3d6:	3d 34       	cpi	r19, 0x4D	; 77
 3d8:	00 03       	mulsu	r16, r16
 3da:	0e 3a       	cpi	r16, 0xAE	; 174
 3dc:	0b 3b       	cpi	r16, 0xBB	; 187
 3de:	0b 49       	sbci	r16, 0x9B	; 155
 3e0:	13 3f       	cpi	r17, 0xF3	; 243
 3e2:	0c 02       	muls	r16, r28
 3e4:	0a 00       	.word	0x000a	; ????
 3e6:	00 3e       	cpi	r16, 0xE0	; 224
 3e8:	34 00       	.word	0x0034	; ????
 3ea:	03 0e       	add	r0, r19
 3ec:	3a 0b       	sbc	r19, r26
 3ee:	3b 0b       	sbc	r19, r27
 3f0:	49 13       	cpse	r20, r25
 3f2:	3f 0c       	add	r3, r15
 3f4:	02 0a       	sbc	r0, r18
 3f6:	00 00       	nop
 3f8:	3f 34       	cpi	r19, 0x4F	; 79
 3fa:	00 03       	mulsu	r16, r16
 3fc:	0e 3a       	cpi	r16, 0xAE	; 174
 3fe:	0b 3b       	cpi	r16, 0xBB	; 187
 400:	0b 49       	sbci	r16, 0x9B	; 155
 402:	13 3f       	cpi	r17, 0xF3	; 243
 404:	0c 02       	muls	r16, r28
 406:	0a 00       	.word	0x000a	; ????
 408:	00 40       	sbci	r16, 0x00	; 0
 40a:	34 00       	.word	0x0034	; ????
 40c:	03 0e       	add	r0, r19
 40e:	3a 0b       	sbc	r19, r26
 410:	3b 0b       	sbc	r19, r27
 412:	49 13       	cpse	r20, r25
 414:	3f 0c       	add	r3, r15
 416:	02 0a       	sbc	r0, r18
 418:	00 00       	nop
 41a:	41 34       	cpi	r20, 0x41	; 65
 41c:	00 03       	mulsu	r16, r16
 41e:	0e 3a       	cpi	r16, 0xAE	; 174
 420:	0b 3b       	cpi	r16, 0xBB	; 187
 422:	0b 49       	sbci	r16, 0x9B	; 155
 424:	13 3f       	cpi	r17, 0xF3	; 243
 426:	0c 02       	muls	r16, r28
 428:	0a 00       	.word	0x000a	; ????
 42a:	00 42       	sbci	r16, 0x20	; 32
 42c:	34 00       	.word	0x0034	; ????
 42e:	03 0e       	add	r0, r19
 430:	3a 0b       	sbc	r19, r26
 432:	3b 0b       	sbc	r19, r27
 434:	49 13       	cpse	r20, r25
 436:	3f 0c       	add	r3, r15
 438:	02 0a       	sbc	r0, r18
 43a:	00 00       	nop
 43c:	43 34       	cpi	r20, 0x43	; 67
 43e:	00 03       	mulsu	r16, r16
 440:	0e 3a       	cpi	r16, 0xAE	; 174
 442:	0b 3b       	cpi	r16, 0xBB	; 187
 444:	0b 49       	sbci	r16, 0x9B	; 155
 446:	13 3f       	cpi	r17, 0xF3	; 243
 448:	0c 02       	muls	r16, r28
 44a:	0a 00       	.word	0x000a	; ????
 44c:	00 44       	sbci	r16, 0x40	; 64
 44e:	34 00       	.word	0x0034	; ????
 450:	03 0e       	add	r0, r19
 452:	3a 0b       	sbc	r19, r26
 454:	3b 0b       	sbc	r19, r27
 456:	49 13       	cpse	r20, r25
 458:	3f 0c       	add	r3, r15
 45a:	02 0a       	sbc	r0, r18
 45c:	00 00       	nop
 45e:	45 34       	cpi	r20, 0x45	; 69
 460:	00 03       	mulsu	r16, r16
 462:	0e 3a       	cpi	r16, 0xAE	; 174
 464:	0b 3b       	cpi	r16, 0xBB	; 187
 466:	0b 49       	sbci	r16, 0x9B	; 155
 468:	13 3f       	cpi	r17, 0xF3	; 243
 46a:	0c 02       	muls	r16, r28
 46c:	0a 00       	.word	0x000a	; ????
 46e:	00 46       	sbci	r16, 0x60	; 96
 470:	34 00       	.word	0x0034	; ????
 472:	03 0e       	add	r0, r19
 474:	3a 0b       	sbc	r19, r26
 476:	3b 0b       	sbc	r19, r27
 478:	49 13       	cpse	r20, r25
 47a:	3f 0c       	add	r3, r15
 47c:	02 0a       	sbc	r0, r18
 47e:	00 00       	nop
 480:	47 34       	cpi	r20, 0x47	; 71
 482:	00 03       	mulsu	r16, r16
 484:	0e 3a       	cpi	r16, 0xAE	; 174
 486:	0b 3b       	cpi	r16, 0xBB	; 187
 488:	0b 49       	sbci	r16, 0x9B	; 155
 48a:	13 3f       	cpi	r17, 0xF3	; 243
 48c:	0c 02       	muls	r16, r28
 48e:	0a 00       	.word	0x000a	; ????
 490:	00 48       	sbci	r16, 0x80	; 128
 492:	34 00       	.word	0x0034	; ????
 494:	03 0e       	add	r0, r19
 496:	3a 0b       	sbc	r19, r26
 498:	3b 0b       	sbc	r19, r27
 49a:	49 13       	cpse	r20, r25
 49c:	3f 0c       	add	r3, r15
 49e:	02 0a       	sbc	r0, r18
 4a0:	00 00       	nop
 4a2:	49 34       	cpi	r20, 0x49	; 73
 4a4:	00 03       	mulsu	r16, r16
 4a6:	0e 3a       	cpi	r16, 0xAE	; 174
 4a8:	0b 3b       	cpi	r16, 0xBB	; 187
 4aa:	0b 49       	sbci	r16, 0x9B	; 155
 4ac:	13 3f       	cpi	r17, 0xF3	; 243
 4ae:	0c 02       	muls	r16, r28
 4b0:	0a 00       	.word	0x000a	; ????
 4b2:	00 4a       	sbci	r16, 0xA0	; 160
 4b4:	34 00       	.word	0x0034	; ????
 4b6:	03 0e       	add	r0, r19
 4b8:	3a 0b       	sbc	r19, r26
 4ba:	3b 0b       	sbc	r19, r27
 4bc:	49 13       	cpse	r20, r25
 4be:	3f 0c       	add	r3, r15
 4c0:	02 0a       	sbc	r0, r18
 4c2:	00 00       	nop
 4c4:	4b 34       	cpi	r20, 0x4B	; 75
 4c6:	00 03       	mulsu	r16, r16
 4c8:	0e 3a       	cpi	r16, 0xAE	; 174
 4ca:	0b 3b       	cpi	r16, 0xBB	; 187
 4cc:	0b 49       	sbci	r16, 0x9B	; 155
 4ce:	13 3f       	cpi	r17, 0xF3	; 243
 4d0:	0c 02       	muls	r16, r28
 4d2:	0a 00       	.word	0x000a	; ????
 4d4:	00 4c       	sbci	r16, 0xC0	; 192
 4d6:	34 00       	.word	0x0034	; ????
 4d8:	03 0e       	add	r0, r19
 4da:	3a 0b       	sbc	r19, r26
 4dc:	3b 0b       	sbc	r19, r27
 4de:	49 13       	cpse	r20, r25
 4e0:	3f 0c       	add	r3, r15
 4e2:	02 0a       	sbc	r0, r18
 4e4:	00 00       	nop
 4e6:	4d 34       	cpi	r20, 0x4D	; 77
 4e8:	00 03       	mulsu	r16, r16
 4ea:	0e 3a       	cpi	r16, 0xAE	; 174
 4ec:	0b 3b       	cpi	r16, 0xBB	; 187
 4ee:	0b 49       	sbci	r16, 0x9B	; 155
 4f0:	13 3f       	cpi	r17, 0xF3	; 243
 4f2:	0c 02       	muls	r16, r28
 4f4:	0a 00       	.word	0x000a	; ????
 4f6:	00 4e       	sbci	r16, 0xE0	; 224
 4f8:	34 00       	.word	0x0034	; ????
 4fa:	03 0e       	add	r0, r19
 4fc:	3a 0b       	sbc	r19, r26
 4fe:	3b 0b       	sbc	r19, r27
 500:	49 13       	cpse	r20, r25
 502:	3f 0c       	add	r3, r15
 504:	02 0a       	sbc	r0, r18
 506:	00 00       	nop
 508:	4f 34       	cpi	r20, 0x4F	; 79
 50a:	00 03       	mulsu	r16, r16
 50c:	0e 3a       	cpi	r16, 0xAE	; 174
 50e:	0b 3b       	cpi	r16, 0xBB	; 187
 510:	0b 49       	sbci	r16, 0x9B	; 155
 512:	13 3f       	cpi	r17, 0xF3	; 243
 514:	0c 02       	muls	r16, r28
 516:	0a 00       	.word	0x000a	; ????
 518:	00 50       	subi	r16, 0x00	; 0
 51a:	34 00       	.word	0x0034	; ????
 51c:	03 0e       	add	r0, r19
 51e:	3a 0b       	sbc	r19, r26
 520:	3b 0b       	sbc	r19, r27
 522:	49 13       	cpse	r20, r25
 524:	3f 0c       	add	r3, r15
 526:	02 0a       	sbc	r0, r18
 528:	00 00       	nop
 52a:	51 34       	cpi	r21, 0x41	; 65
 52c:	00 03       	mulsu	r16, r16
 52e:	0e 3a       	cpi	r16, 0xAE	; 174
 530:	0b 3b       	cpi	r16, 0xBB	; 187
 532:	0b 49       	sbci	r16, 0x9B	; 155
 534:	13 3f       	cpi	r17, 0xF3	; 243
 536:	0c 02       	muls	r16, r28
 538:	0a 00       	.word	0x000a	; ????
 53a:	00 52       	subi	r16, 0x20	; 32
 53c:	34 00       	.word	0x0034	; ????
 53e:	03 0e       	add	r0, r19
 540:	3a 0b       	sbc	r19, r26
 542:	3b 0b       	sbc	r19, r27
 544:	49 13       	cpse	r20, r25
 546:	3f 0c       	add	r3, r15
 548:	02 0a       	sbc	r0, r18
 54a:	00 00       	nop
 54c:	53 34       	cpi	r21, 0x43	; 67
 54e:	00 03       	mulsu	r16, r16
 550:	0e 3a       	cpi	r16, 0xAE	; 174
 552:	0b 3b       	cpi	r16, 0xBB	; 187
 554:	0b 49       	sbci	r16, 0x9B	; 155
 556:	13 3f       	cpi	r17, 0xF3	; 243
 558:	0c 02       	muls	r16, r28
 55a:	0a 00       	.word	0x000a	; ????
 55c:	00 54       	subi	r16, 0x40	; 64
 55e:	34 00       	.word	0x0034	; ????
 560:	03 0e       	add	r0, r19
 562:	3a 0b       	sbc	r19, r26
 564:	3b 0b       	sbc	r19, r27
 566:	49 13       	cpse	r20, r25
 568:	3f 0c       	add	r3, r15
 56a:	02 0a       	sbc	r0, r18
 56c:	00 00       	nop
 56e:	55 34       	cpi	r21, 0x45	; 69
 570:	00 03       	mulsu	r16, r16
 572:	0e 3a       	cpi	r16, 0xAE	; 174
 574:	0b 3b       	cpi	r16, 0xBB	; 187
 576:	0b 49       	sbci	r16, 0x9B	; 155
 578:	13 3f       	cpi	r17, 0xF3	; 243
 57a:	0c 02       	muls	r16, r28
 57c:	0a 00       	.word	0x000a	; ????
 57e:	00 56       	subi	r16, 0x60	; 96
 580:	34 00       	.word	0x0034	; ????
 582:	03 0e       	add	r0, r19
 584:	3a 0b       	sbc	r19, r26
 586:	3b 0b       	sbc	r19, r27
 588:	49 13       	cpse	r20, r25
 58a:	3f 0c       	add	r3, r15
 58c:	02 0a       	sbc	r0, r18
 58e:	00 00       	nop
 590:	57 34       	cpi	r21, 0x47	; 71
 592:	00 03       	mulsu	r16, r16
 594:	0e 3a       	cpi	r16, 0xAE	; 174
 596:	0b 3b       	cpi	r16, 0xBB	; 187
 598:	0b 49       	sbci	r16, 0x9B	; 155
 59a:	13 3f       	cpi	r17, 0xF3	; 243
 59c:	0c 02       	muls	r16, r28
 59e:	0a 00       	.word	0x000a	; ????
	...

Disassembly of section .debug_line:

00000000 <.Ldebug_line0>:
   0:	19 00       	.word	0x0019	; ????
   2:	00 00       	nop
   4:	03 00       	.word	0x0003	; ????
   6:	13 00       	.word	0x0013	; ????
   8:	00 00       	nop
   a:	02 01       	movw	r0, r4
   c:	fb 0e       	add	r15, r27
   e:	0d 00       	.word	0x000d	; ????
  10:	01 01       	movw	r0, r2
  12:	01 01       	movw	r0, r2
  14:	00 00       	nop
  16:	00 01       	movw	r0, r0
  18:	00 00       	nop
  1a:	01 00       	.word	0x0001	; ????
	...

Disassembly of section .debug_str:

00000000 <.Lproducer>:
   0:	61 76       	andi	r22, 0x61	; 97
   2:	72 2d       	mov	r23, r2
   4:	6c 69       	ori	r22, 0x9C	; 156
   6:	62 63       	ori	r22, 0x32	; 50
   8:	20 32       	cpi	r18, 0x20	; 32
   a:	2e 32       	cpi	r18, 0x2E	; 46
   c:	2e 31       	cpi	r18, 0x1E	; 30
	...

0000000f <.Luint8_t_name>:
   f:	75 69       	ori	r23, 0x95	; 149
  11:	6e 74       	andi	r22, 0x4E	; 78
  13:	38 5f       	subi	r19, 0xF8	; 248
  15:	74 00       	.word	0x0074	; ????

00000017 <.Luint16_t_name>:
  17:	75 69       	ori	r23, 0x95	; 149
  19:	6e 74       	andi	r22, 0x4E	; 78
  1b:	31 36       	cpi	r19, 0x61	; 97
  1d:	5f 74       	andi	r21, 0x4F	; 79
	...

00000020 <.Lname6>:
  20:	5f 5f       	subi	r21, 0xFF	; 255
  22:	65 65       	ori	r22, 0x55	; 85
  24:	70 72       	andi	r23, 0x20	; 32
  26:	6f 6d       	ori	r22, 0xDF	; 223
	...

00000029 <.Lname7>:
  29:	55 44       	sbci	r21, 0x45	; 69
  2b:	52 30       	cpi	r21, 0x02	; 2
	...

0000002e <.Lname8>:
  2e:	55 43       	sbci	r21, 0x35	; 53
  30:	53 52       	subi	r21, 0x23	; 35
  32:	30 41       	sbci	r19, 0x10	; 16
	...

00000035 <.Lname9>:
  35:	55 43       	sbci	r21, 0x35	; 53
  37:	53 52       	subi	r21, 0x23	; 35
  39:	30 42       	sbci	r19, 0x20	; 32
	...

0000003c <.Lname10>:
  3c:	55 43       	sbci	r21, 0x35	; 53
  3e:	53 52       	subi	r21, 0x23	; 35
  40:	30 43       	sbci	r19, 0x30	; 48
	...

00000043 <.Lname11>:
  43:	55 42       	sbci	r21, 0x25	; 37
  45:	52 52       	subi	r21, 0x22	; 34
  47:	30 00       	.word	0x0030	; ????

00000049 <.Lname12>:
  49:	54 57       	subi	r21, 0x74	; 116
  4b:	41 4d       	sbci	r20, 0xD1	; 209
  4d:	52 00       	.word	0x0052	; ????

0000004f <.Lname13>:
  4f:	54 57       	subi	r21, 0x74	; 116
  51:	42 52       	subi	r20, 0x22	; 34
	...

00000054 <.Lname14>:
  54:	54 57       	subi	r21, 0x74	; 116
  56:	43 52       	subi	r20, 0x23	; 35
	...

00000059 <.Lname15>:
  59:	54 57       	subi	r21, 0x74	; 116
  5b:	53 52       	subi	r21, 0x23	; 35
	...

0000005e <.Lname16>:
  5e:	54 57       	subi	r21, 0x74	; 116
  60:	44 52       	subi	r20, 0x24	; 36
	...

00000063 <.Lname17>:
  63:	54 57       	subi	r21, 0x74	; 116
  65:	41 52       	subi	r20, 0x21	; 33
	...

00000068 <.Lname18>:
  68:	54 49       	sbci	r21, 0x94	; 148
  6a:	4d 53       	subi	r20, 0x3D	; 61
  6c:	4b 31       	cpi	r20, 0x1B	; 27
	...

0000006f <.Lname19>:
  6f:	54 49       	sbci	r21, 0x94	; 148
  71:	46 52       	subi	r20, 0x26	; 38
  73:	31 00       	.word	0x0031	; ????

00000075 <.Lname20>:
  75:	54 43       	sbci	r21, 0x34	; 52
  77:	43 52       	subi	r20, 0x23	; 35
  79:	31 41       	sbci	r19, 0x11	; 17
	...

0000007c <.Lname21>:
  7c:	54 43       	sbci	r21, 0x34	; 52
  7e:	43 52       	subi	r20, 0x23	; 35
  80:	31 42       	sbci	r19, 0x21	; 33
	...

00000083 <.Lname22>:
  83:	54 43       	sbci	r21, 0x34	; 52
  85:	43 52       	subi	r20, 0x23	; 35
  87:	31 43       	sbci	r19, 0x31	; 49
	...

0000008a <.Lname23>:
  8a:	54 43       	sbci	r21, 0x34	; 52
  8c:	4e 54       	subi	r20, 0x4E	; 78
  8e:	31 00       	.word	0x0031	; ????

00000090 <.Lname24>:
  90:	4f 43       	sbci	r20, 0x3F	; 63
  92:	52 31       	cpi	r21, 0x12	; 18
  94:	41 00       	.word	0x0041	; ????

00000096 <.Lname25>:
  96:	4f 43       	sbci	r20, 0x3F	; 63
  98:	52 31       	cpi	r21, 0x12	; 18
  9a:	42 00       	.word	0x0042	; ????

0000009c <.Lname26>:
  9c:	49 43       	sbci	r20, 0x39	; 57
  9e:	52 31       	cpi	r21, 0x12	; 18
	...

000000a1 <.Lname27>:
  a1:	47 54       	subi	r20, 0x47	; 71
  a3:	43 43       	sbci	r20, 0x33	; 51
  a5:	52 00       	.word	0x0052	; ????

000000a7 <.Lname28>:
  a7:	54 49       	sbci	r21, 0x94	; 148
  a9:	4d 53       	subi	r20, 0x3D	; 61
  ab:	4b 32       	cpi	r20, 0x2B	; 43
	...

000000ae <.Lname29>:
  ae:	54 49       	sbci	r21, 0x94	; 148
  b0:	46 52       	subi	r20, 0x26	; 38
  b2:	32 00       	.word	0x0032	; ????

000000b4 <.Lname30>:
  b4:	54 43       	sbci	r21, 0x34	; 52
  b6:	43 52       	subi	r20, 0x23	; 35
  b8:	32 41       	sbci	r19, 0x12	; 18
	...

000000bb <.Lname31>:
  bb:	54 43       	sbci	r21, 0x34	; 52
  bd:	43 52       	subi	r20, 0x23	; 35
  bf:	32 42       	sbci	r19, 0x22	; 34
	...

000000c2 <.Lname32>:
  c2:	54 43       	sbci	r21, 0x34	; 52
  c4:	4e 54       	subi	r20, 0x4E	; 78
  c6:	32 00       	.word	0x0032	; ????

000000c8 <.Lname33>:
  c8:	4f 43       	sbci	r20, 0x3F	; 63
  ca:	52 32       	cpi	r21, 0x22	; 34
  cc:	42 00       	.word	0x0042	; ????

000000ce <.Lname34>:
  ce:	4f 43       	sbci	r20, 0x3F	; 63
  d0:	52 32       	cpi	r21, 0x22	; 34
  d2:	41 00       	.word	0x0041	; ????

000000d4 <.Lname35>:
  d4:	41 53       	subi	r20, 0x31	; 49
  d6:	53 52       	subi	r21, 0x23	; 35
	...

000000d9 <.Lname36>:
  d9:	47 54       	subi	r20, 0x47	; 71
  db:	43 43       	sbci	r20, 0x33	; 51
  dd:	52 00       	.word	0x0052	; ????

000000df <.Lname37>:
  df:	41 44       	sbci	r20, 0x41	; 65
  e1:	4d 55       	subi	r20, 0x5D	; 93
  e3:	58 00       	.word	0x0058	; ????

000000e5 <.Lname38>:
  e5:	41 44       	sbci	r20, 0x41	; 65
  e7:	43 00       	.word	0x0043	; ????

000000e9 <.Lname39>:
  e9:	41 44       	sbci	r20, 0x41	; 65
  eb:	43 53       	subi	r20, 0x33	; 51
  ed:	52 41       	sbci	r21, 0x12	; 18
	...

000000f0 <.Lname40>:
  f0:	41 44       	sbci	r20, 0x41	; 65
  f2:	43 53       	subi	r20, 0x33	; 51
  f4:	52 42       	sbci	r21, 0x22	; 34
	...

000000f7 <.Lname41>:
  f7:	44 49       	sbci	r20, 0x94	; 148
  f9:	44 52       	subi	r20, 0x24	; 36
  fb:	30 00       	.word	0x0030	; ????

000000fd <.Lname42>:
  fd:	41 43       	sbci	r20, 0x31	; 49
  ff:	53 52       	subi	r21, 0x23	; 35
	...

00000102 <.Lname43>:
 102:	44 49       	sbci	r20, 0x94	; 148
 104:	44 52       	subi	r20, 0x24	; 36
 106:	31 00       	.word	0x0031	; ????

00000108 <.Lname44>:
 108:	50 4f       	sbci	r21, 0xF0	; 240
 10a:	52 54       	subi	r21, 0x42	; 66
 10c:	42 00       	.word	0x0042	; ????

0000010e <.Lname45>:
 10e:	44 44       	sbci	r20, 0x44	; 68
 110:	52 42       	sbci	r21, 0x22	; 34
	...

00000113 <.Lname46>:
 113:	50 49       	sbci	r21, 0x90	; 144
 115:	4e 42       	sbci	r20, 0x2E	; 46
	...

00000118 <.Lname47>:
 118:	50 4f       	sbci	r21, 0xF0	; 240
 11a:	52 54       	subi	r21, 0x42	; 66
 11c:	43 00       	.word	0x0043	; ????

0000011e <.Lname48>:
 11e:	44 44       	sbci	r20, 0x44	; 68
 120:	52 43       	sbci	r21, 0x32	; 50
	...

00000123 <.Lname49>:
 123:	50 49       	sbci	r21, 0x90	; 144
 125:	4e 43       	sbci	r20, 0x3E	; 62
	...

00000128 <.Lname50>:
 128:	50 4f       	sbci	r21, 0xF0	; 240
 12a:	52 54       	subi	r21, 0x42	; 66
 12c:	44 00       	.word	0x0044	; ????

0000012e <.Lname51>:
 12e:	44 44       	sbci	r20, 0x44	; 68
 130:	52 44       	sbci	r21, 0x42	; 66
	...

00000133 <.Lname52>:
 133:	50 49       	sbci	r21, 0x90	; 144
 135:	4e 44       	sbci	r20, 0x4E	; 78
	...

00000138 <.Lname53>:
 138:	4f 43       	sbci	r20, 0x3F	; 63
 13a:	52 30       	cpi	r21, 0x02	; 2
 13c:	42 00       	.word	0x0042	; ????

0000013e <.Lname54>:
 13e:	4f 43       	sbci	r20, 0x3F	; 63
 140:	52 30       	cpi	r21, 0x02	; 2
 142:	41 00       	.word	0x0041	; ????

00000144 <.Lname55>:
 144:	54 43       	sbci	r21, 0x34	; 52
 146:	4e 54       	subi	r20, 0x4E	; 78
 148:	30 00       	.word	0x0030	; ????

0000014a <.Lname56>:
 14a:	54 43       	sbci	r21, 0x34	; 52
 14c:	43 52       	subi	r20, 0x23	; 35
 14e:	30 42       	sbci	r19, 0x20	; 32
	...

00000151 <.Lname57>:
 151:	54 43       	sbci	r21, 0x34	; 52
 153:	43 52       	subi	r20, 0x23	; 35
 155:	30 41       	sbci	r19, 0x10	; 16
	...

00000158 <.Lname58>:
 158:	54 49       	sbci	r21, 0x94	; 148
 15a:	4d 53       	subi	r20, 0x3D	; 61
 15c:	4b 30       	cpi	r20, 0x0B	; 11
	...

0000015f <.Lname59>:
 15f:	54 49       	sbci	r21, 0x94	; 148
 161:	46 52       	subi	r20, 0x26	; 38
 163:	30 00       	.word	0x0030	; ????

00000165 <.Lname60>:
 165:	47 54       	subi	r20, 0x47	; 71
 167:	43 43       	sbci	r20, 0x33	; 51
 169:	52 00       	.word	0x0052	; ????

0000016b <.Lname61>:
 16b:	45 49       	sbci	r20, 0x95	; 149
 16d:	43 52       	subi	r20, 0x23	; 35
 16f:	41 00       	.word	0x0041	; ????

00000171 <.Lname62>:
 171:	45 49       	sbci	r20, 0x95	; 149
 173:	4d 53       	subi	r20, 0x3D	; 61
 175:	4b 00       	.word	0x004b	; ????

00000177 <.Lname63>:
 177:	45 49       	sbci	r20, 0x95	; 149
 179:	46 52       	subi	r20, 0x26	; 38
	...

0000017c <.Lname64>:
 17c:	50 43       	sbci	r21, 0x30	; 48
 17e:	49 43       	sbci	r20, 0x39	; 57
 180:	52 00       	.word	0x0052	; ????

00000182 <.Lname65>:
 182:	50 43       	sbci	r21, 0x30	; 48
 184:	4d 53       	subi	r20, 0x3D	; 61
 186:	4b 32       	cpi	r20, 0x2B	; 43
	...

00000189 <.Lname66>:
 189:	50 43       	sbci	r21, 0x30	; 48
 18b:	4d 53       	subi	r20, 0x3D	; 61
 18d:	4b 31       	cpi	r20, 0x1B	; 27
	...

00000190 <.Lname67>:
 190:	50 43       	sbci	r21, 0x30	; 48
 192:	4d 53       	subi	r20, 0x3D	; 61
 194:	4b 30       	cpi	r20, 0x0B	; 11
	...

00000197 <.Lname68>:
 197:	50 43       	sbci	r21, 0x30	; 48
 199:	49 46       	sbci	r20, 0x69	; 105
 19b:	52 00       	.word	0x0052	; ????

0000019d <.Lname69>:
 19d:	53 50       	subi	r21, 0x03	; 3
 19f:	44 52       	subi	r20, 0x24	; 36
	...

000001a2 <.Lname70>:
 1a2:	53 50       	subi	r21, 0x03	; 3
 1a4:	53 52       	subi	r21, 0x23	; 35
	...

000001a7 <.Lname71>:
 1a7:	53 50       	subi	r21, 0x03	; 3
 1a9:	43 52       	subi	r20, 0x23	; 35
	...

000001ac <.Lname72>:
 1ac:	57 44       	sbci	r21, 0x47	; 71
 1ae:	54 43       	sbci	r21, 0x34	; 52
 1b0:	53 52       	subi	r21, 0x23	; 35
	...

000001b3 <.Lname73>:
 1b3:	50 52       	subi	r21, 0x20	; 32
 1b5:	52 00       	.word	0x0052	; ????

000001b7 <.Lname74>:
 1b7:	4f 53       	subi	r20, 0x3F	; 63
 1b9:	43 43       	sbci	r20, 0x33	; 51
 1bb:	41 4c       	sbci	r20, 0xC1	; 193
	...

000001be <.Lname75>:
 1be:	43 4c       	sbci	r20, 0xC3	; 195
 1c0:	4b 50       	subi	r20, 0x0B	; 11
 1c2:	52 00       	.word	0x0052	; ????

000001c4 <.Lname76>:
 1c4:	53 52       	subi	r21, 0x23	; 35
 1c6:	45 47       	sbci	r20, 0x75	; 117
	...

000001c9 <.Lname77>:
 1c9:	53 50       	subi	r21, 0x03	; 3
	...

000001cc <.Lname78>:
 1cc:	53 50       	subi	r21, 0x03	; 3
 1ce:	4d 43       	sbci	r20, 0x3D	; 61
 1d0:	53 52       	subi	r21, 0x23	; 35
	...

000001d3 <.Lname79>:
 1d3:	4d 43       	sbci	r20, 0x3D	; 61
 1d5:	55 43       	sbci	r21, 0x35	; 53
 1d7:	52 00       	.word	0x0052	; ????

000001d9 <.Lname80>:
 1d9:	4d 43       	sbci	r20, 0x3D	; 61
 1db:	55 53       	subi	r21, 0x35	; 53
 1dd:	52 00       	.word	0x0052	; ????

000001df <.Lname81>:
 1df:	53 4d       	sbci	r21, 0xD3	; 211
 1e1:	43 52       	subi	r20, 0x23	; 35
	...

000001e4 <.Lname82>:
 1e4:	47 50       	subi	r20, 0x07	; 7
 1e6:	49 4f       	sbci	r20, 0xF9	; 249
 1e8:	52 32       	cpi	r21, 0x22	; 34
	...

000001eb <.Lname83>:
 1eb:	47 50       	subi	r20, 0x07	; 7
 1ed:	49 4f       	sbci	r20, 0xF9	; 249
 1ef:	52 31       	cpi	r21, 0x12	; 18
	...

000001f2 <.Lname84>:
 1f2:	47 50       	subi	r20, 0x07	; 7
 1f4:	49 4f       	sbci	r20, 0xF9	; 249
 1f6:	52 30       	cpi	r21, 0x02	; 2
	...

000001f9 <.Lname85>:
 1f9:	45 45       	sbci	r20, 0x55	; 85
 1fb:	41 52       	subi	r20, 0x21	; 33
	...

000001fe <.Lname86>:
 1fe:	45 45       	sbci	r20, 0x55	; 85
 200:	44 52       	subi	r20, 0x24	; 36
	...

00000203 <.Lname87>:
 203:	45 45       	sbci	r20, 0x55	; 85
 205:	43 52       	subi	r20, 0x23	; 35
	...
