
obj/main.elf:     file format elf32-avr


Disassembly of section .text:

00000000 <__vectors>:
   0:	0c 94 34 00 	jmp	0x68	; 0x68 <__ctors_end>
   4:	0c 94 46 00 	jmp	0x8c	; 0x8c <__bad_interrupt>
   8:	0c 94 46 00 	jmp	0x8c	; 0x8c <__bad_interrupt>
   c:	0c 94 46 00 	jmp	0x8c	; 0x8c <__bad_interrupt>
  10:	0c 94 46 00 	jmp	0x8c	; 0x8c <__bad_interrupt>
  14:	0c 94 46 00 	jmp	0x8c	; 0x8c <__bad_interrupt>
  18:	0c 94 46 00 	jmp	0x8c	; 0x8c <__bad_interrupt>
  1c:	0c 94 46 00 	jmp	0x8c	; 0x8c <__bad_interrupt>
  20:	0c 94 46 00 	jmp	0x8c	; 0x8c <__bad_interrupt>
  24:	0c 94 46 00 	jmp	0x8c	; 0x8c <__bad_interrupt>
  28:	0c 94 46 00 	jmp	0x8c	; 0x8c <__bad_interrupt>
  2c:	0c 94 be 00 	jmp	0x17c	; 0x17c <__vector_11>
  30:	0c 94 46 00 	jmp	0x8c	; 0x8c <__bad_interrupt>
  34:	0c 94 46 00 	jmp	0x8c	; 0x8c <__bad_interrupt>
  38:	0c 94 46 00 	jmp	0x8c	; 0x8c <__bad_interrupt>
  3c:	0c 94 46 00 	jmp	0x8c	; 0x8c <__bad_interrupt>
  40:	0c 94 46 00 	jmp	0x8c	; 0x8c <__bad_interrupt>
  44:	0c 94 46 00 	jmp	0x8c	; 0x8c <__bad_interrupt>
  48:	0c 94 46 00 	jmp	0x8c	; 0x8c <__bad_interrupt>
  4c:	0c 94 46 00 	jmp	0x8c	; 0x8c <__bad_interrupt>
  50:	0c 94 46 00 	jmp	0x8c	; 0x8c <__bad_interrupt>
  54:	0c 94 46 00 	jmp	0x8c	; 0x8c <__bad_interrupt>
  58:	0c 94 46 00 	jmp	0x8c	; 0x8c <__bad_interrupt>
  5c:	0c 94 46 00 	jmp	0x8c	; 0x8c <__bad_interrupt>
  60:	0c 94 46 00 	jmp	0x8c	; 0x8c <__bad_interrupt>
  64:	0c 94 46 00 	jmp	0x8c	; 0x8c <__bad_interrupt>

00000068 <__ctors_end>:
  68:	11 24       	eor	r1, r1
  6a:	1f be       	out	0x3f, r1	; 63
  6c:	cf ef       	ldi	r28, 0xFF	; 255
  6e:	d8 e0       	ldi	r29, 0x08	; 8
  70:	de bf       	out	0x3e, r29	; 62
  72:	cd bf       	out	0x3d, r28	; 61

00000074 <__do_clear_bss>:
  74:	21 e0       	ldi	r18, 0x01	; 1

00000076 <.Loc.1>:
  76:	a0 e0       	ldi	r26, 0x00	; 0

00000078 <.Loc.2>:
  78:	b1 e0       	ldi	r27, 0x01	; 1

0000007a <.Loc.3>:
  7a:	01 c0       	rjmp	.+2      	; 0x7e <.Loc.5>

0000007c <.Loc.4>:
  7c:	1d 92       	st	X+, r1

0000007e <.Loc.5>:
  7e:	ab 30       	cpi	r26, 0x0B	; 11

00000080 <.Loc.6>:
  80:	b2 07       	cpc	r27, r18

00000082 <.Loc.7>:
  82:	e1 f7       	brne	.-8      	; 0x7c <.Loc.4>

00000084 <L0^A>:
  84:	0e 94 c1 00 	call	0x182	; 0x182 <main>
  88:	0c 94 5d 04 	jmp	0x8ba	; 0x8ba <_exit>

0000008c <__bad_interrupt>:
  8c:	0c 94 00 00 	jmp	0	; 0x0 <__vectors>

00000090 <initialize>:
  90:	84 b1       	in	r24, 0x04	; 4
  92:	8f 63       	ori	r24, 0x3F	; 63
  94:	84 b9       	out	0x04, r24	; 4
  96:	87 b1       	in	r24, 0x07	; 7
  98:	8f 60       	ori	r24, 0x0F	; 15
  9a:	87 b9       	out	0x07, r24	; 7
  9c:	53 98       	cbi	0x0a, 3	; 10
  9e:	e1 e8       	ldi	r30, 0x81	; 129
  a0:	f0 e0       	ldi	r31, 0x00	; 0
  a2:	80 81       	ld	r24, Z
  a4:	88 60       	ori	r24, 0x08	; 8
  a6:	80 83       	st	Z, r24
  a8:	80 81       	ld	r24, Z
  aa:	85 60       	ori	r24, 0x05	; 5
  ac:	80 83       	st	Z, r24
  ae:	88 e0       	ldi	r24, 0x08	; 8
  b0:	9d e3       	ldi	r25, 0x3D	; 61
  b2:	90 93 89 00 	sts	0x0089, r25	; 0x800089 <__TEXT_REGION_LENGTH__+0x7f8089>
  b6:	80 93 88 00 	sts	0x0088, r24	; 0x800088 <__TEXT_REGION_LENGTH__+0x7f8088>
  ba:	ef e6       	ldi	r30, 0x6F	; 111
  bc:	f0 e0       	ldi	r31, 0x00	; 0
  be:	80 81       	ld	r24, Z
  c0:	82 60       	ori	r24, 0x02	; 2
  c2:	80 83       	st	Z, r24
  c4:	3d 9a       	sbi	0x07, 5	; 7
  c6:	08 95       	ret

000000c8 <update_splittime>:
  c8:	fc 01       	movw	r30, r24
  ca:	db 01       	movw	r26, r22
  cc:	12 96       	adiw	r26, 0x02	; 2
  ce:	8c 91       	ld	r24, X
  d0:	12 97       	sbiw	r26, 0x02	; 2
  d2:	2a e0       	ldi	r18, 0x0A	; 10
  d4:	62 2f       	mov	r22, r18
  d6:	0e 94 0a 01 	call	0x214	; 0x214 <__divmodqi4>
  da:	85 83       	std	Z+5, r24	; 0x05
  dc:	94 83       	std	Z+4, r25	; 0x04
  de:	11 96       	adiw	r26, 0x01	; 1
  e0:	8c 91       	ld	r24, X
  e2:	11 97       	sbiw	r26, 0x01	; 1
  e4:	62 2f       	mov	r22, r18
  e6:	0e 94 0a 01 	call	0x214	; 0x214 <__divmodqi4>
  ea:	83 83       	std	Z+3, r24	; 0x03
  ec:	92 83       	std	Z+2, r25	; 0x02
  ee:	8c 91       	ld	r24, X
  f0:	62 2f       	mov	r22, r18
  f2:	0e 94 0a 01 	call	0x214	; 0x214 <__divmodqi4>
  f6:	81 83       	std	Z+1, r24	; 0x01
  f8:	90 83       	st	Z, r25
  fa:	08 95       	ret

000000fc <turn_off_digits>:
  fc:	15 b8       	out	0x05, r1	; 5
  fe:	08 95       	ret

00000100 <turn_on_digit>:
 100:	21 e0       	ldi	r18, 0x01	; 1
 102:	30 e0       	ldi	r19, 0x00	; 0
 104:	01 c0       	rjmp	.+2      	; 0x108 <.L2^B1>

00000106 <.L1^B1>:
 106:	22 0f       	add	r18, r18

00000108 <.L2^B1>:
 108:	8a 95       	dec	r24
 10a:	ea f7       	brpl	.-6      	; 0x106 <.L1^B1>
 10c:	25 b9       	out	0x05, r18	; 5
 10e:	8f e9       	ldi	r24, 0x9F	; 159
 110:	9f e0       	ldi	r25, 0x0F	; 15

00000112 <.L1^B2>:
 112:	01 97       	sbiw	r24, 0x01	; 1
 114:	f1 f7       	brne	.-4      	; 0x112 <.L1^B2>
 116:	00 c0       	rjmp	.+0      	; 0x118 <L0^A>

00000118 <L0^A>:
 118:	00 00       	nop
 11a:	15 b8       	out	0x05, r1	; 5
 11c:	08 95       	ret

0000011e <show_digit>:
 11e:	96 b1       	in	r25, 0x06	; 6
 120:	8f 70       	andi	r24, 0x0F	; 15
 122:	90 7f       	andi	r25, 0xF0	; 240
 124:	89 2b       	or	r24, r25
 126:	88 b9       	out	0x08, r24	; 8
 128:	08 95       	ret

0000012a <show_time>:
 12a:	cf 93       	push	r28
 12c:	df 93       	push	r29
 12e:	ec 01       	movw	r28, r24
 130:	88 81       	ld	r24, Y
 132:	0e 94 8f 00 	call	0x11e	; 0x11e <show_digit>
 136:	80 e0       	ldi	r24, 0x00	; 0
 138:	0e 94 80 00 	call	0x100	; 0x100 <turn_on_digit>
 13c:	89 81       	ldd	r24, Y+1	; 0x01
 13e:	0e 94 8f 00 	call	0x11e	; 0x11e <show_digit>
 142:	81 e0       	ldi	r24, 0x01	; 1
 144:	0e 94 80 00 	call	0x100	; 0x100 <turn_on_digit>
 148:	8a 81       	ldd	r24, Y+2	; 0x02
 14a:	0e 94 8f 00 	call	0x11e	; 0x11e <show_digit>
 14e:	82 e0       	ldi	r24, 0x02	; 2
 150:	0e 94 80 00 	call	0x100	; 0x100 <turn_on_digit>
 154:	8b 81       	ldd	r24, Y+3	; 0x03
 156:	0e 94 8f 00 	call	0x11e	; 0x11e <show_digit>
 15a:	83 e0       	ldi	r24, 0x03	; 3
 15c:	0e 94 80 00 	call	0x100	; 0x100 <turn_on_digit>
 160:	8c 81       	ldd	r24, Y+4	; 0x04
 162:	0e 94 8f 00 	call	0x11e	; 0x11e <show_digit>
 166:	84 e0       	ldi	r24, 0x04	; 4
 168:	0e 94 80 00 	call	0x100	; 0x100 <turn_on_digit>
 16c:	8d 81       	ldd	r24, Y+5	; 0x05
 16e:	0e 94 8f 00 	call	0x11e	; 0x11e <show_digit>
 172:	85 e0       	ldi	r24, 0x05	; 5
 174:	df 91       	pop	r29
 176:	cf 91       	pop	r28
 178:	0c 94 80 00 	jmp	0x100	; 0x100 <turn_on_digit>

0000017c <__vector_11>:
 17c:	0e 94 df 01 	call	0x3be	; 0x3be <system_tick>
 180:	18 95       	reti

00000182 <main>:
 182:	cf 93       	push	r28
 184:	df 93       	push	r29
 186:	cd b7       	in	r28, 0x3d	; 61
 188:	de b7       	in	r29, 0x3e	; 62
 18a:	6c 97       	sbiw	r28, 0x1c	; 28
 18c:	0f b6       	in	r0, 0x3f	; 63
 18e:	f8 94       	cli
 190:	de bf       	out	0x3e, r29	; 62
 192:	0f be       	out	0x3f, r0	; 63
 194:	cd bf       	out	0x3d, r28	; 61
 196:	19 8e       	std	Y+25, r1	; 0x19
 198:	1a 8e       	std	Y+26, r1	; 0x1a
 19a:	1b 8e       	std	Y+27, r1	; 0x1b
 19c:	1c 8e       	std	Y+28, r1	; 0x1c
 19e:	8c e0       	ldi	r24, 0x0C	; 12
 1a0:	fe 01       	movw	r30, r28
 1a2:	3d 96       	adiw	r30, 0x0d	; 13
 1a4:	df 01       	movw	r26, r30
 1a6:	98 2f       	mov	r25, r24

000001a8 <.L0^B1>:
 1a8:	1d 92       	st	X+, r1
 1aa:	9a 95       	dec	r25
 1ac:	e9 f7       	brne	.-6      	; 0x1a8 <.L0^B1>
 1ae:	91 e0       	ldi	r25, 0x01	; 1
 1b0:	98 8b       	std	Y+16, r25	; 0x10
 1b2:	2d e7       	ldi	r18, 0x7D	; 125
 1b4:	30 e0       	ldi	r19, 0x00	; 0
 1b6:	3c 8b       	std	Y+20, r19	; 0x14
 1b8:	2b 8b       	std	Y+19, r18	; 0x13
 1ba:	8e 01       	movw	r16, r28
 1bc:	0f 5f       	subi	r16, 0xFF	; 255
 1be:	1f 4f       	sbci	r17, 0xFF	; 255
 1c0:	d8 01       	movw	r26, r16

000001c2 <.L0^B2>:
 1c2:	01 90       	ld	r0, Z+
 1c4:	0d 92       	st	X+, r0
 1c6:	8a 95       	dec	r24
 1c8:	e1 f7       	brne	.-8      	; 0x1c2 <.L0^B2>
 1ca:	c8 01       	movw	r24, r16
 1cc:	0e 94 65 01 	call	0x2ca	; 0x2ca <mktime>
 1d0:	0e 94 ba 01 	call	0x374	; 0x374 <set_system_time>
 1d4:	80 e0       	ldi	r24, 0x00	; 0
 1d6:	90 e0       	ldi	r25, 0x00	; 0
 1d8:	0e 94 cc 01 	call	0x398	; 0x398 <time>
 1dc:	69 8f       	std	Y+25, r22	; 0x19
 1de:	7a 8f       	std	Y+26, r23	; 0x1a
 1e0:	8b 8f       	std	Y+27, r24	; 0x1b
 1e2:	9c 8f       	std	Y+28, r25	; 0x1c
 1e4:	0e 94 48 00 	call	0x90	; 0x90 <initialize>
 1e8:	78 94       	sei
 1ea:	88 e0       	ldi	r24, 0x08	; 8
 1ec:	f8 2e       	mov	r15, r24

000001ee <.L3>:
 1ee:	80 91 00 01 	lds	r24, 0x0100	; 0x800100 <heartbeat>
 1f2:	81 15       	cp	r24, r1
 1f4:	e1 f3       	breq	.-8      	; 0x1ee <.L3>
 1f6:	8b b1       	in	r24, 0x0b	; 11
 1f8:	8f 25       	eor	r24, r15
 1fa:	8b b9       	out	0x0b, r24	; 11
 1fc:	ce 01       	movw	r24, r28
 1fe:	49 96       	adiw	r24, 0x19	; 25
 200:	0e 94 cc 01 	call	0x398	; 0x398 <time>
 204:	b8 01       	movw	r22, r16
 206:	ce 01       	movw	r24, r28
 208:	49 96       	adiw	r24, 0x19	; 25
 20a:	0e 94 24 01 	call	0x248	; 0x248 <localtime_r>
 20e:	10 92 00 01 	sts	0x0100, r1	; 0x800100 <heartbeat>
 212:	ed cf       	rjmp	.-38     	; 0x1ee <.L3>

00000214 <__divmodqi4>:
 214:	87 fb       	bst	r24, 7

00000216 <.Loc.1>:
 216:	08 2e       	mov	r0, r24

00000218 <.Loc.2>:
 218:	06 26       	eor	r0, r22

0000021a <.Loc.3>:
 21a:	87 fd       	sbrc	r24, 7

0000021c <.Loc.4>:
 21c:	81 95       	neg	r24

0000021e <.Loc.5>:
 21e:	67 fd       	sbrc	r22, 7

00000220 <.Loc.6>:
 220:	61 95       	neg	r22

00000222 <.Loc.7>:
 222:	0e 94 18 01 	call	0x230	; 0x230 <__udivmodqi4>

00000226 <.Loc.8>:
 226:	0e f4       	brtc	.+2      	; 0x22a <__divmodqi4_1>

00000228 <.Loc.9>:
 228:	91 95       	neg	r25

0000022a <__divmodqi4_1>:
 22a:	07 fc       	sbrc	r0, 7

0000022c <.Loc.11>:
 22c:	81 95       	neg	r24

0000022e <__divmodqi4_exit>:
 22e:	08 95       	ret

00000230 <__udivmodqi4>:
 230:	99 27       	eor	r25, r25

00000232 <.Loc.1>:
 232:	78 e0       	ldi	r23, 0x08	; 8

00000234 <.Loc.2>:
 234:	88 0f       	add	r24, r24

00000236 <__udivmodqi4_loop>:
 236:	99 1f       	adc	r25, r25

00000238 <.Loc.4>:
 238:	96 17       	cp	r25, r22

0000023a <.Loc.5>:
 23a:	08 f0       	brcs	.+2      	; 0x23e <__udivmodqi4_ep>

0000023c <.Loc.6>:
 23c:	96 1b       	sub	r25, r22

0000023e <__udivmodqi4_ep>:
 23e:	88 1f       	adc	r24, r24

00000240 <.Loc.8>:
 240:	7a 95       	dec	r23

00000242 <.Loc.9>:
 242:	c9 f7       	brne	.-14     	; 0x236 <__udivmodqi4_loop>

00000244 <.Loc.10>:
 244:	80 95       	com	r24

00000246 <.Loc.11>:
 246:	08 95       	ret

00000248 <localtime_r>:
 248:	a4 e0       	ldi	r26, 0x04	; 4
 24a:	b0 e0       	ldi	r27, 0x00	; 0
 24c:	ea e2       	ldi	r30, 0x2A	; 42
 24e:	f1 e0       	ldi	r31, 0x01	; 1
 250:	0c 94 21 04 	jmp	0x842	; 0x842 <.Loc.10>

00000254 <.L1^B1>:
 254:	6c 01       	movw	r12, r24
 256:	7b 01       	movw	r14, r22
 258:	e0 91 09 01 	lds	r30, 0x0109	; 0x800109 <__dst_ptr>
 25c:	f0 91 0a 01 	lds	r31, 0x010A	; 0x80010a <__dst_ptr+0x1>
 260:	0f ef       	ldi	r16, 0xFF	; 255
 262:	1f ef       	ldi	r17, 0xFF	; 255
 264:	30 97       	sbiw	r30, 0x00	; 0
 266:	21 f0       	breq	.+8      	; 0x270 <.L2>
 268:	65 e0       	ldi	r22, 0x05	; 5
 26a:	71 e0       	ldi	r23, 0x01	; 1
 26c:	09 95       	icall
 26e:	8c 01       	movw	r16, r24

00000270 <.L2>:
 270:	f6 01       	movw	r30, r12
 272:	80 81       	ld	r24, Z
 274:	91 81       	ldd	r25, Z+1	; 0x01
 276:	a2 81       	ldd	r26, Z+2	; 0x02
 278:	b3 81       	ldd	r27, Z+3	; 0x03
 27a:	40 91 05 01 	lds	r20, 0x0105	; 0x800105 <__utc_offset>
 27e:	50 91 06 01 	lds	r21, 0x0106	; 0x800106 <__utc_offset+0x1>
 282:	60 91 07 01 	lds	r22, 0x0107	; 0x800107 <__utc_offset+0x2>
 286:	70 91 08 01 	lds	r23, 0x0108	; 0x800108 <__utc_offset+0x3>
 28a:	84 0f       	add	r24, r20
 28c:	95 1f       	adc	r25, r21
 28e:	a6 1f       	adc	r26, r22
 290:	b7 1f       	adc	r27, r23
 292:	10 16       	cp	r1, r16
 294:	11 06       	cpc	r1, r17
 296:	4c f4       	brge	.+18     	; 0x2aa <.L3>
 298:	a8 01       	movw	r20, r16
 29a:	01 2e       	mov	r0, r17
 29c:	00 0c       	add	r0, r0
 29e:	66 0b       	sbc	r22, r22
 2a0:	77 0b       	sbc	r23, r23
 2a2:	84 0f       	add	r24, r20
 2a4:	95 1f       	adc	r25, r21
 2a6:	a6 1f       	adc	r26, r22
 2a8:	b7 1f       	adc	r27, r23

000002aa <.L3>:
 2aa:	89 83       	std	Y+1, r24	; 0x01
 2ac:	9a 83       	std	Y+2, r25	; 0x02
 2ae:	ab 83       	std	Y+3, r26	; 0x03
 2b0:	bc 83       	std	Y+4, r27	; 0x04
 2b2:	b7 01       	movw	r22, r14
 2b4:	ce 01       	movw	r24, r28
 2b6:	01 96       	adiw	r24, 0x01	; 1
 2b8:	0e 94 fb 01 	call	0x3f6	; 0x3f6 <gmtime_r>
 2bc:	f7 01       	movw	r30, r14
 2be:	13 87       	std	Z+11, r17	; 0x0b
 2c0:	02 87       	std	Z+10, r16	; 0x0a
 2c2:	24 96       	adiw	r28, 0x04	; 4
 2c4:	e8 e0       	ldi	r30, 0x08	; 8
 2c6:	0c 94 3d 04 	jmp	0x87a	; 0x87a <.Loc.10>

000002ca <mktime>:
 2ca:	a4 e0       	ldi	r26, 0x04	; 4
 2cc:	b0 e0       	ldi	r27, 0x00	; 0
 2ce:	eb e6       	ldi	r30, 0x6B	; 107
 2d0:	f1 e0       	ldi	r31, 0x01	; 1
 2d2:	0c 94 23 04 	jmp	0x846	; 0x846 <.Loc.12>

000002d6 <.L1^B1>:
 2d6:	7c 01       	movw	r14, r24
 2d8:	0e 94 b3 02 	call	0x566	; 0x566 <mk_gmtime>
 2dc:	69 83       	std	Y+1, r22	; 0x01
 2de:	7a 83       	std	Y+2, r23	; 0x02
 2e0:	8b 83       	std	Y+3, r24	; 0x03
 2e2:	9c 83       	std	Y+4, r25	; 0x04
 2e4:	f7 01       	movw	r30, r14
 2e6:	02 85       	ldd	r16, Z+10	; 0x0a
 2e8:	13 85       	ldd	r17, Z+11	; 0x0b
 2ea:	17 ff       	sbrs	r17, 7
 2ec:	0f c0       	rjmp	.+30     	; 0x30c <.L2>
 2ee:	e0 91 09 01 	lds	r30, 0x0109	; 0x800109 <__dst_ptr>
 2f2:	f0 91 0a 01 	lds	r31, 0x010A	; 0x80010a <__dst_ptr+0x1>
 2f6:	30 97       	sbiw	r30, 0x00	; 0
 2f8:	e1 f0       	breq	.+56     	; 0x332 <.L3>
 2fa:	65 e0       	ldi	r22, 0x05	; 5
 2fc:	71 e0       	ldi	r23, 0x01	; 1
 2fe:	ce 01       	movw	r24, r28
 300:	01 96       	adiw	r24, 0x01	; 1
 302:	09 95       	icall
 304:	8c 01       	movw	r16, r24
 306:	f7 01       	movw	r30, r14
 308:	93 87       	std	Z+11, r25	; 0x0b
 30a:	82 87       	std	Z+10, r24	; 0x0a

0000030c <.L2>:
 30c:	10 16       	cp	r1, r16
 30e:	11 06       	cpc	r1, r17
 310:	84 f4       	brge	.+32     	; 0x332 <.L3>
 312:	01 2e       	mov	r0, r17
 314:	00 0c       	add	r0, r0
 316:	22 0b       	sbc	r18, r18
 318:	33 0b       	sbc	r19, r19
 31a:	49 81       	ldd	r20, Y+1	; 0x01
 31c:	5a 81       	ldd	r21, Y+2	; 0x02
 31e:	6b 81       	ldd	r22, Y+3	; 0x03
 320:	7c 81       	ldd	r23, Y+4	; 0x04
 322:	40 1b       	sub	r20, r16
 324:	51 0b       	sbc	r21, r17
 326:	62 0b       	sbc	r22, r18
 328:	73 0b       	sbc	r23, r19
 32a:	49 83       	std	Y+1, r20	; 0x01
 32c:	5a 83       	std	Y+2, r21	; 0x02
 32e:	6b 83       	std	Y+3, r22	; 0x03
 330:	7c 83       	std	Y+4, r23	; 0x04

00000332 <.L3>:
 332:	89 81       	ldd	r24, Y+1	; 0x01
 334:	9a 81       	ldd	r25, Y+2	; 0x02
 336:	ab 81       	ldd	r26, Y+3	; 0x03
 338:	bc 81       	ldd	r27, Y+4	; 0x04
 33a:	40 91 05 01 	lds	r20, 0x0105	; 0x800105 <__utc_offset>
 33e:	50 91 06 01 	lds	r21, 0x0106	; 0x800106 <__utc_offset+0x1>
 342:	60 91 07 01 	lds	r22, 0x0107	; 0x800107 <__utc_offset+0x2>
 346:	70 91 08 01 	lds	r23, 0x0108	; 0x800108 <__utc_offset+0x3>
 34a:	84 1b       	sub	r24, r20
 34c:	95 0b       	sbc	r25, r21
 34e:	a6 0b       	sbc	r26, r22
 350:	b7 0b       	sbc	r27, r23
 352:	89 83       	std	Y+1, r24	; 0x01
 354:	9a 83       	std	Y+2, r25	; 0x02
 356:	ab 83       	std	Y+3, r26	; 0x03
 358:	bc 83       	std	Y+4, r27	; 0x04
 35a:	b7 01       	movw	r22, r14
 35c:	ce 01       	movw	r24, r28
 35e:	01 96       	adiw	r24, 0x01	; 1
 360:	0e 94 24 01 	call	0x248	; 0x248 <localtime_r>
 364:	69 81       	ldd	r22, Y+1	; 0x01
 366:	7a 81       	ldd	r23, Y+2	; 0x02
 368:	8b 81       	ldd	r24, Y+3	; 0x03
 36a:	9c 81       	ldd	r25, Y+4	; 0x04
 36c:	24 96       	adiw	r28, 0x04	; 4
 36e:	e6 e0       	ldi	r30, 0x06	; 6
 370:	0c 94 3f 04 	jmp	0x87e	; 0x87e <.Loc.12>

00000374 <set_system_time>:
 374:	0f 93       	push	r16
 376:	1f 93       	push	r17
 378:	8b 01       	movw	r16, r22
 37a:	9c 01       	movw	r18, r24
 37c:	8f b7       	in	r24, 0x3f	; 63
 37e:	f8 94       	cli
 380:	00 93 01 01 	sts	0x0101, r16	; 0x800101 <__system_time>
 384:	10 93 02 01 	sts	0x0102, r17	; 0x800102 <__system_time+0x1>
 388:	20 93 03 01 	sts	0x0103, r18	; 0x800103 <__system_time+0x2>
 38c:	30 93 04 01 	sts	0x0104, r19	; 0x800104 <__system_time+0x3>
 390:	8f bf       	out	0x3f, r24	; 63
 392:	1f 91       	pop	r17
 394:	0f 91       	pop	r16
 396:	08 95       	ret

00000398 <time>:
 398:	fc 01       	movw	r30, r24
 39a:	2f b7       	in	r18, 0x3f	; 63
 39c:	f8 94       	cli
 39e:	60 91 01 01 	lds	r22, 0x0101	; 0x800101 <__system_time>
 3a2:	70 91 02 01 	lds	r23, 0x0102	; 0x800102 <__system_time+0x1>
 3a6:	80 91 03 01 	lds	r24, 0x0103	; 0x800103 <__system_time+0x2>
 3aa:	90 91 04 01 	lds	r25, 0x0104	; 0x800104 <__system_time+0x3>
 3ae:	2f bf       	out	0x3f, r18	; 63
 3b0:	30 97       	sbiw	r30, 0x00	; 0
 3b2:	21 f0       	breq	.+8      	; 0x3bc <.L1>
 3b4:	60 83       	st	Z, r22
 3b6:	71 83       	std	Z+1, r23	; 0x01
 3b8:	82 83       	std	Z+2, r24	; 0x02
 3ba:	93 83       	std	Z+3, r25	; 0x03

000003bc <.L1>:
 3bc:	08 95       	ret

000003be <system_tick>:
 3be:	8f 93       	push	r24
 3c0:	8f b7       	in	r24, 0x3f	; 63
 3c2:	8f 93       	push	r24
 3c4:	f8 94       	cli
 3c6:	80 91 01 01 	lds	r24, 0x0101	; 0x800101 <__system_time>
 3ca:	8f 5f       	subi	r24, 0xFF	; 255
 3cc:	80 93 01 01 	sts	0x0101, r24	; 0x800101 <__system_time>
 3d0:	80 91 02 01 	lds	r24, 0x0102	; 0x800102 <__system_time+0x1>
 3d4:	8f 4f       	sbci	r24, 0xFF	; 255
 3d6:	80 93 02 01 	sts	0x0102, r24	; 0x800102 <__system_time+0x1>
 3da:	80 91 03 01 	lds	r24, 0x0103	; 0x800103 <__system_time+0x2>
 3de:	8f 4f       	sbci	r24, 0xFF	; 255
 3e0:	80 93 03 01 	sts	0x0103, r24	; 0x800103 <__system_time+0x2>
 3e4:	80 91 04 01 	lds	r24, 0x0104	; 0x800104 <__system_time+0x3>
 3e8:	8f 4f       	sbci	r24, 0xFF	; 255
 3ea:	80 93 04 01 	sts	0x0104, r24	; 0x800104 <__system_time+0x3>
 3ee:	8f 91       	pop	r24
 3f0:	8f bf       	out	0x3f, r24	; 63
 3f2:	8f 91       	pop	r24
 3f4:	08 95       	ret

000003f6 <gmtime_r>:
 3f6:	a8 e0       	ldi	r26, 0x08	; 8
 3f8:	b0 e0       	ldi	r27, 0x00	; 0
 3fa:	e1 e0       	ldi	r30, 0x01	; 1
 3fc:	f2 e0       	ldi	r31, 0x02	; 2
 3fe:	0c 94 1d 04 	jmp	0x83a	; 0x83a <.Loc.6>

00000402 <.L1^B1>:
 402:	8b 01       	movw	r16, r22
 404:	fc 01       	movw	r30, r24
 406:	60 81       	ld	r22, Z
 408:	71 81       	ldd	r23, Z+1	; 0x01
 40a:	82 81       	ldd	r24, Z+2	; 0x02
 40c:	93 81       	ldd	r25, Z+3	; 0x03
 40e:	20 e8       	ldi	r18, 0x80	; 128
 410:	31 e5       	ldi	r19, 0x51	; 81
 412:	41 e0       	ldi	r20, 0x01	; 1
 414:	50 e0       	ldi	r21, 0x00	; 0
 416:	0e 94 c4 03 	call	0x788	; 0x788 <__udivmodsi4>
 41a:	49 01       	movw	r8, r18
 41c:	5a 01       	movw	r10, r20
 41e:	2c e3       	ldi	r18, 0x3C	; 60
 420:	30 e0       	ldi	r19, 0x00	; 0
 422:	40 e0       	ldi	r20, 0x00	; 0
 424:	50 e0       	ldi	r21, 0x00	; 0
 426:	0e 94 e6 03 	call	0x7cc	; 0x7cc <__divmodsi4>
 42a:	29 83       	std	Y+1, r18	; 0x01
 42c:	3a 83       	std	Y+2, r19	; 0x02
 42e:	4b 83       	std	Y+3, r20	; 0x03
 430:	5c 83       	std	Y+4, r21	; 0x04
 432:	f8 01       	movw	r30, r16
 434:	60 83       	st	Z, r22
 436:	6c e3       	ldi	r22, 0x3C	; 60
 438:	70 e0       	ldi	r23, 0x00	; 0
 43a:	89 81       	ldd	r24, Y+1	; 0x01
 43c:	9a 81       	ldd	r25, Y+2	; 0x02
 43e:	0e 94 b0 03 	call	0x760	; 0x760 <__divmodhi4>
 442:	f8 01       	movw	r30, r16
 444:	81 83       	std	Z+1, r24	; 0x01
 446:	62 83       	std	Z+2, r22	; 0x02
 448:	c4 01       	movw	r24, r8
 44a:	06 96       	adiw	r24, 0x06	; 6
 44c:	67 e0       	ldi	r22, 0x07	; 7
 44e:	70 e0       	ldi	r23, 0x00	; 0
 450:	0e 94 9c 03 	call	0x738	; 0x738 <__udivmodhi4>
 454:	84 83       	std	Z+4, r24	; 0x04
 456:	2d ea       	ldi	r18, 0xAD	; 173
 458:	3e e8       	ldi	r19, 0x8E	; 142
 45a:	40 e0       	ldi	r20, 0x00	; 0
 45c:	50 e0       	ldi	r21, 0x00	; 0
 45e:	c5 01       	movw	r24, r10
 460:	b4 01       	movw	r22, r8
 462:	0e 94 e6 03 	call	0x7cc	; 0x7cc <__divmodsi4>
 466:	29 83       	std	Y+1, r18	; 0x01
 468:	3a 83       	std	Y+2, r19	; 0x02
 46a:	6d 83       	std	Y+5, r22	; 0x05
 46c:	7e 83       	std	Y+6, r23	; 0x06
 46e:	8f 83       	std	Y+7, r24	; 0x07
 470:	98 87       	std	Y+8, r25	; 0x08
 472:	89 81       	ldd	r24, Y+1	; 0x01
 474:	9a 81       	ldd	r25, Y+2	; 0x02
 476:	24 e6       	ldi	r18, 0x64	; 100
 478:	28 9f       	mul	r18, r24
 47a:	40 01       	movw	r8, r0
 47c:	29 9f       	mul	r18, r25
 47e:	90 0c       	add	r9, r0
 480:	11 24       	eor	r1, r1
 482:	6d 81       	ldd	r22, Y+5	; 0x05
 484:	7e 81       	ldd	r23, Y+6	; 0x06
 486:	8f 81       	ldd	r24, Y+7	; 0x07
 488:	98 85       	ldd	r25, Y+8	; 0x08
 48a:	25 eb       	ldi	r18, 0xB5	; 181
 48c:	35 e0       	ldi	r19, 0x05	; 5
 48e:	40 e0       	ldi	r20, 0x00	; 0
 490:	50 e0       	ldi	r21, 0x00	; 0
 492:	0e 94 e6 03 	call	0x7cc	; 0x7cc <__divmodsi4>
 496:	29 83       	std	Y+1, r18	; 0x01
 498:	3a 83       	std	Y+2, r19	; 0x02
 49a:	6d 83       	std	Y+5, r22	; 0x05
 49c:	7e 83       	std	Y+6, r23	; 0x06
 49e:	a9 80       	ldd	r10, Y+1	; 0x01
 4a0:	ba 80       	ldd	r11, Y+2	; 0x02
 4a2:	aa 0c       	add	r10, r10
 4a4:	bb 1c       	adc	r11, r11
 4a6:	aa 0c       	add	r10, r10
 4a8:	bb 1c       	adc	r11, r11
 4aa:	a8 0c       	add	r10, r8
 4ac:	b9 1c       	adc	r11, r9
 4ae:	8d 81       	ldd	r24, Y+5	; 0x05
 4b0:	9e 81       	ldd	r25, Y+6	; 0x06
 4b2:	f5 e6       	ldi	r31, 0x65	; 101
 4b4:	af 16       	cp	r10, r31
 4b6:	b1 04       	cpc	r11, r1
 4b8:	90 f1       	brcs	.+100    	; 0x51e <.L2>
 4ba:	01 96       	adiw	r24, 0x01	; 1
 4bc:	21 e0       	ldi	r18, 0x01	; 1
 4be:	30 e0       	ldi	r19, 0x00	; 0

000004c0 <.L3>:
 4c0:	a9 01       	movw	r20, r18
 4c2:	44 59       	subi	r20, 0x94	; 148
 4c4:	5e 4f       	sbci	r21, 0xFE	; 254
 4c6:	48 17       	cp	r20, r24
 4c8:	59 07       	cpc	r21, r25
 4ca:	50 f4       	brcc	.+20     	; 0x4e0 <.L5>
 4cc:	6d e6       	ldi	r22, 0x6D	; 109
 4ce:	71 e0       	ldi	r23, 0x01	; 1
 4d0:	82 1b       	sub	r24, r18
 4d2:	93 0b       	sbc	r25, r19
 4d4:	0e 94 b0 03 	call	0x760	; 0x760 <__divmodhi4>
 4d8:	a6 0e       	add	r10, r22
 4da:	b7 1e       	adc	r11, r23
 4dc:	20 e0       	ldi	r18, 0x00	; 0
 4de:	30 e0       	ldi	r19, 0x00	; 0

000004e0 <.L5>:
 4e0:	44 e6       	ldi	r20, 0x64	; 100
 4e2:	a4 0e       	add	r10, r20
 4e4:	b1 1c       	adc	r11, r1
 4e6:	f8 01       	movw	r30, r16
 4e8:	b7 82       	std	Z+7, r11	; 0x07
 4ea:	a6 82       	std	Z+6, r10	; 0x06
 4ec:	91 87       	std	Z+9, r25	; 0x09
 4ee:	80 87       	std	Z+8, r24	; 0x08
 4f0:	25 5c       	subi	r18, 0xC5	; 197
 4f2:	3f 4f       	sbci	r19, 0xFF	; 255
 4f4:	82 17       	cp	r24, r18
 4f6:	93 07       	cpc	r25, r19
 4f8:	d8 f4       	brcc	.+54     	; 0x530 <.L6>
 4fa:	6f e1       	ldi	r22, 0x1F	; 31
 4fc:	70 e0       	ldi	r23, 0x00	; 0
 4fe:	0e 94 b0 03 	call	0x760	; 0x760 <__divmodhi4>
 502:	6b 01       	movw	r12, r22
 504:	7c 01       	movw	r14, r24
 506:	86 2f       	mov	r24, r22

00000508 <.L8>:
 508:	9e 2d       	mov	r25, r14
 50a:	f8 01       	movw	r30, r16
 50c:	85 83       	std	Z+5, r24	; 0x05
 50e:	13 86       	std	Z+11, r1	; 0x0b
 510:	12 86       	std	Z+10, r1	; 0x0a
 512:	9f 5f       	subi	r25, 0xFF	; 255
 514:	93 83       	std	Z+3, r25	; 0x03
 516:	28 96       	adiw	r28, 0x08	; 8
 518:	ec e0       	ldi	r30, 0x0C	; 12
 51a:	0c 94 39 04 	jmp	0x872	; 0x872 <.Loc.6>

0000051e <.L2>:
 51e:	41 e0       	ldi	r20, 0x01	; 1
 520:	24 e6       	ldi	r18, 0x64	; 100
 522:	a2 16       	cp	r10, r18
 524:	b1 04       	cpc	r11, r1
 526:	09 f4       	brne	.+2      	; 0x52a <.L4>
 528:	40 e0       	ldi	r20, 0x00	; 0

0000052a <.L4>:
 52a:	24 2f       	mov	r18, r20
 52c:	30 e0       	ldi	r19, 0x00	; 0
 52e:	c8 cf       	rjmp	.-112    	; 0x4c0 <.L3>

00000530 <.L6>:
 530:	69 e9       	ldi	r22, 0x99	; 153
 532:	70 e0       	ldi	r23, 0x00	; 0
 534:	82 1b       	sub	r24, r18
 536:	93 0b       	sbc	r25, r19
 538:	0e 94 b0 03 	call	0x760	; 0x760 <__divmodhi4>
 53c:	b6 2e       	mov	r11, r22
 53e:	bb 0c       	add	r11, r11
 540:	bb 0c       	add	r11, r11
 542:	b6 0e       	add	r11, r22
 544:	6d e3       	ldi	r22, 0x3D	; 61
 546:	70 e0       	ldi	r23, 0x00	; 0
 548:	0e 94 b0 03 	call	0x760	; 0x760 <__divmodhi4>
 54c:	a6 2e       	mov	r10, r22
 54e:	aa 0c       	add	r10, r10
 550:	6f e1       	ldi	r22, 0x1F	; 31
 552:	70 e0       	ldi	r23, 0x00	; 0
 554:	0e 94 b0 03 	call	0x760	; 0x760 <__divmodhi4>
 558:	6b 01       	movw	r12, r22
 55a:	7c 01       	movw	r14, r24
 55c:	82 e0       	ldi	r24, 0x02	; 2
 55e:	8c 0d       	add	r24, r12
 560:	8b 0d       	add	r24, r11
 562:	8a 0d       	add	r24, r10
 564:	d1 cf       	rjmp	.-94     	; 0x508 <.L8>

00000566 <mk_gmtime>:
 566:	8f 92       	push	r8
 568:	9f 92       	push	r9
 56a:	af 92       	push	r10
 56c:	bf 92       	push	r11
 56e:	cf 92       	push	r12
 570:	df 92       	push	r13
 572:	ef 92       	push	r14
 574:	ff 92       	push	r15
 576:	cf 93       	push	r28
 578:	df 93       	push	r29
 57a:	ec 01       	movw	r28, r24
 57c:	ee 81       	ldd	r30, Y+6	; 0x06
 57e:	ff 81       	ldd	r31, Y+7	; 0x07
 580:	7f 01       	movw	r14, r30
 582:	24 e6       	ldi	r18, 0x64	; 100
 584:	e2 1a       	sub	r14, r18
 586:	f1 08       	sbc	r15, r1
 588:	09 f4       	brne	.+2      	; 0x58c <L0^A+0x2>

0000058a <L0^A>:
 58a:	72 c0       	rjmp	.+228    	; 0x670 <.L8>
 58c:	cf 01       	movw	r24, r30
 58e:	85 56       	subi	r24, 0x65	; 101
 590:	91 09       	sbc	r25, r1
 592:	9c 01       	movw	r18, r24
 594:	97 ff       	sbrs	r25, 7
 596:	02 c0       	rjmp	.+4      	; 0x59c <.L3>
 598:	2d 5f       	subi	r18, 0xFD	; 253
 59a:	3f 4f       	sbci	r19, 0xFF	; 255

0000059c <.L3>:
 59c:	35 95       	asr	r19
 59e:	27 95       	ror	r18
 5a0:	35 95       	asr	r19
 5a2:	27 95       	ror	r18
 5a4:	6c e9       	ldi	r22, 0x9C	; 156
 5a6:	7f ef       	ldi	r23, 0xFF	; 255
 5a8:	0e 94 b0 03 	call	0x760	; 0x760 <__divmodhi4>
 5ac:	62 0f       	add	r22, r18
 5ae:	73 1f       	adc	r23, r19
 5b0:	ab 01       	movw	r20, r22
 5b2:	4f 5f       	subi	r20, 0xFF	; 255
 5b4:	5f 4f       	sbci	r21, 0xFF	; 255

000005b6 <.L2>:
 5b6:	2d e6       	ldi	r18, 0x6D	; 109
 5b8:	31 e0       	ldi	r19, 0x01	; 1
 5ba:	d7 01       	movw	r26, r14
 5bc:	0e 94 05 04 	call	0x80a	; 0x80a <__usmulhisi3>
 5c0:	6a 01       	movw	r12, r20
 5c2:	55 0f       	add	r21, r21
 5c4:	ee 08       	sbc	r14, r14
 5c6:	ff 08       	sbc	r15, r15
 5c8:	4b 01       	movw	r8, r22
 5ca:	5c 01       	movw	r10, r24
 5cc:	8c 0c       	add	r8, r12
 5ce:	9d 1c       	adc	r9, r13
 5d0:	ae 1c       	adc	r10, r14
 5d2:	bf 1c       	adc	r11, r15
 5d4:	8b 81       	ldd	r24, Y+3	; 0x03
 5d6:	08 2e       	mov	r0, r24
 5d8:	00 0c       	add	r0, r0
 5da:	99 0b       	sbc	r25, r25
 5dc:	01 97       	sbiw	r24, 0x01	; 1
 5de:	6c 01       	movw	r12, r24
 5e0:	2d 81       	ldd	r18, Y+5	; 0x05
 5e2:	22 30       	cpi	r18, 0x02	; 2
 5e4:	0c f0       	brlt	.+2      	; 0x5e8 <L0^A+0x2>

000005e6 <L0^A>:
 5e6:	47 c0       	rjmp	.+142    	; 0x676 <.L4>
 5e8:	21 15       	cp	r18, r1
 5ea:	19 f0       	breq	.+6      	; 0x5f2 <.L5>
 5ec:	2f e1       	ldi	r18, 0x1F	; 31
 5ee:	c2 0e       	add	r12, r18
 5f0:	d1 1c       	adc	r13, r1

000005f2 <.L5>:
 5f2:	0d 2c       	mov	r0, r13
 5f4:	00 0c       	add	r0, r0
 5f6:	ee 08       	sbc	r14, r14
 5f8:	ff 08       	sbc	r15, r15
 5fa:	c8 0c       	add	r12, r8
 5fc:	d9 1c       	adc	r13, r9
 5fe:	ea 1c       	adc	r14, r10
 600:	fb 1c       	adc	r15, r11
 602:	aa 81       	ldd	r26, Y+2	; 0x02
 604:	0a 2e       	mov	r0, r26
 606:	00 0c       	add	r0, r0
 608:	bb 0b       	sbc	r27, r27
 60a:	20 e1       	ldi	r18, 0x10	; 16
 60c:	3e e0       	ldi	r19, 0x0E	; 14
 60e:	0e 94 05 04 	call	0x80a	; 0x80a <__usmulhisi3>
 612:	4b 01       	movw	r8, r22
 614:	5c 01       	movw	r10, r24
 616:	a9 81       	ldd	r26, Y+1	; 0x01
 618:	0a 2e       	mov	r0, r26
 61a:	00 0c       	add	r0, r0
 61c:	bb 0b       	sbc	r27, r27
 61e:	2c e3       	ldi	r18, 0x3C	; 60
 620:	30 e0       	ldi	r19, 0x00	; 0
 622:	0e 94 05 04 	call	0x80a	; 0x80a <__usmulhisi3>
 626:	68 0d       	add	r22, r8
 628:	79 1d       	adc	r23, r9
 62a:	8a 1d       	adc	r24, r10
 62c:	9b 1d       	adc	r25, r11
 62e:	88 80       	ld	r8, Y
 630:	08 2c       	mov	r0, r8
 632:	00 0c       	add	r0, r0
 634:	99 08       	sbc	r9, r9
 636:	aa 08       	sbc	r10, r10
 638:	bb 08       	sbc	r11, r11
 63a:	86 0e       	add	r8, r22
 63c:	97 1e       	adc	r9, r23
 63e:	a8 1e       	adc	r10, r24
 640:	b9 1e       	adc	r11, r25
 642:	a7 01       	movw	r20, r14
 644:	96 01       	movw	r18, r12
 646:	60 e8       	ldi	r22, 0x80	; 128
 648:	71 e5       	ldi	r23, 0x51	; 81
 64a:	81 e0       	ldi	r24, 0x01	; 1
 64c:	90 e0       	ldi	r25, 0x00	; 0
 64e:	0e 94 8c 03 	call	0x718	; 0x718 <__mulsi3>
 652:	68 0d       	add	r22, r8
 654:	79 1d       	adc	r23, r9
 656:	8a 1d       	adc	r24, r10
 658:	9b 1d       	adc	r25, r11
 65a:	df 91       	pop	r29
 65c:	cf 91       	pop	r28
 65e:	ff 90       	pop	r15
 660:	ef 90       	pop	r14
 662:	df 90       	pop	r13
 664:	cf 90       	pop	r12
 666:	bf 90       	pop	r11
 668:	af 90       	pop	r10
 66a:	9f 90       	pop	r9
 66c:	8f 90       	pop	r8
 66e:	08 95       	ret

00000670 <.L8>:
 670:	40 e0       	ldi	r20, 0x00	; 0
 672:	50 e0       	ldi	r21, 0x00	; 0
 674:	a0 cf       	rjmp	.-192    	; 0x5b6 <.L2>

00000676 <.L4>:
 676:	cf 01       	movw	r24, r30
 678:	84 59       	subi	r24, 0x94	; 148
 67a:	98 4f       	sbci	r25, 0xF8	; 248
 67c:	0e 94 6d 03 	call	0x6da	; 0x6da <is_leap_year>
 680:	28 2f       	mov	r18, r24
 682:	30 e0       	ldi	r19, 0x00	; 0
 684:	25 5c       	subi	r18, 0xC5	; 197
 686:	3f 4f       	sbci	r19, 0xFF	; 255
 688:	2c 0d       	add	r18, r12
 68a:	3d 1d       	adc	r19, r13
 68c:	8d 81       	ldd	r24, Y+5	; 0x05
 68e:	08 2e       	mov	r0, r24
 690:	00 0c       	add	r0, r0
 692:	99 0b       	sbc	r25, r25
 694:	02 97       	sbiw	r24, 0x02	; 2
 696:	85 30       	cpi	r24, 0x05	; 5
 698:	91 05       	cpc	r25, r1
 69a:	14 f0       	brlt	.+4      	; 0x6a0 <.L6>
 69c:	27 56       	subi	r18, 0x67	; 103
 69e:	3f 4f       	sbci	r19, 0xFF	; 255

000006a0 <.L6>:
 6a0:	65 e0       	ldi	r22, 0x05	; 5
 6a2:	70 e0       	ldi	r23, 0x00	; 0
 6a4:	0e 94 b0 03 	call	0x760	; 0x760 <__divmodhi4>
 6a8:	ac 01       	movw	r20, r24
 6aa:	97 ff       	sbrs	r25, 7
 6ac:	02 c0       	rjmp	.+4      	; 0x6b2 <.L7>
 6ae:	4f 5f       	subi	r20, 0xFF	; 255
 6b0:	5f 4f       	sbci	r21, 0xFF	; 255

000006b2 <.L7>:
 6b2:	55 95       	asr	r21
 6b4:	47 95       	ror	r20
 6b6:	6d e3       	ldi	r22, 0x3D	; 61
 6b8:	64 9f       	mul	r22, r20
 6ba:	60 01       	movw	r12, r0
 6bc:	65 9f       	mul	r22, r21
 6be:	d0 0c       	add	r13, r0
 6c0:	11 24       	eor	r1, r1
 6c2:	c2 0e       	add	r12, r18
 6c4:	d3 1e       	adc	r13, r19
 6c6:	81 70       	andi	r24, 0x01	; 1
 6c8:	99 27       	eor	r25, r25
 6ca:	91 95       	neg	r25
 6cc:	81 95       	neg	r24
 6ce:	91 09       	sbc	r25, r1
 6d0:	8f 71       	andi	r24, 0x1F	; 31
 6d2:	99 27       	eor	r25, r25
 6d4:	c8 0e       	add	r12, r24
 6d6:	d9 1e       	adc	r13, r25
 6d8:	8c cf       	rjmp	.-232    	; 0x5f2 <.L5>

000006da <is_leap_year>:
 6da:	cf 92       	push	r12
 6dc:	df 92       	push	r13
 6de:	ef 92       	push	r14
 6e0:	ff 92       	push	r15
 6e2:	9c 01       	movw	r18, r24
 6e4:	83 70       	andi	r24, 0x03	; 3
 6e6:	99 27       	eor	r25, r25
 6e8:	89 2b       	or	r24, r25
 6ea:	81 f4       	brne	.+32     	; 0x70c <.L4>
 6ec:	64 e6       	ldi	r22, 0x64	; 100
 6ee:	70 e0       	ldi	r23, 0x00	; 0
 6f0:	c9 01       	movw	r24, r18
 6f2:	0e 94 b0 03 	call	0x760	; 0x760 <__divmodhi4>
 6f6:	6b 01       	movw	r12, r22
 6f8:	7c 01       	movw	r14, r24
 6fa:	81 e0       	ldi	r24, 0x01	; 1
 6fc:	ef 28       	or	r14, r15
 6fe:	39 f4       	brne	.+14     	; 0x70e <.L2>
 700:	83 e0       	ldi	r24, 0x03	; 3
 702:	c8 22       	and	r12, r24
 704:	dd 24       	eor	r13, r13
 706:	81 e0       	ldi	r24, 0x01	; 1
 708:	cd 28       	or	r12, r13
 70a:	09 f0       	breq	.+2      	; 0x70e <.L2>

0000070c <.L4>:
 70c:	80 e0       	ldi	r24, 0x00	; 0

0000070e <.L2>:
 70e:	ff 90       	pop	r15
 710:	ef 90       	pop	r14
 712:	df 90       	pop	r13
 714:	cf 90       	pop	r12
 716:	08 95       	ret

00000718 <__mulsi3>:
 718:	db 01       	movw	r26, r22

0000071a <.Loc.1>:
 71a:	8f 93       	push	r24

0000071c <.Loc.2>:
 71c:	9f 93       	push	r25

0000071e <.Loc.3>:
 71e:	0e 94 0c 04 	call	0x818	; 0x818 <__muluhisi3>

00000722 <.Loc.4>:
 722:	bf 91       	pop	r27

00000724 <.Loc.5>:
 724:	af 91       	pop	r26

00000726 <.Loc.6>:
 726:	a2 9f       	mul	r26, r18

00000728 <.Loc.7>:
 728:	80 0d       	add	r24, r0

0000072a <.Loc.8>:
 72a:	91 1d       	adc	r25, r1

0000072c <.Loc.9>:
 72c:	a3 9f       	mul	r26, r19

0000072e <.Loc.10>:
 72e:	90 0d       	add	r25, r0

00000730 <.Loc.11>:
 730:	b2 9f       	mul	r27, r18

00000732 <.Loc.12>:
 732:	90 0d       	add	r25, r0

00000734 <.Loc.13>:
 734:	11 24       	eor	r1, r1

00000736 <.Loc.14>:
 736:	08 95       	ret

00000738 <__udivmodhi4>:
 738:	aa 1b       	sub	r26, r26

0000073a <.Loc.1>:
 73a:	bb 1b       	sub	r27, r27

0000073c <.Loc.2>:
 73c:	51 e1       	ldi	r21, 0x11	; 17

0000073e <.Loc.3>:
 73e:	07 c0       	rjmp	.+14     	; 0x74e <__udivmodhi4_ep>

00000740 <__udivmodhi4_loop>:
 740:	aa 1f       	adc	r26, r26

00000742 <.Loc.5>:
 742:	bb 1f       	adc	r27, r27

00000744 <.Loc.6>:
 744:	a6 17       	cp	r26, r22

00000746 <.Loc.7>:
 746:	b7 07       	cpc	r27, r23

00000748 <.Loc.8>:
 748:	10 f0       	brcs	.+4      	; 0x74e <__udivmodhi4_ep>

0000074a <.Loc.9>:
 74a:	a6 1b       	sub	r26, r22

0000074c <.Loc.10>:
 74c:	b7 0b       	sbc	r27, r23

0000074e <__udivmodhi4_ep>:
 74e:	88 1f       	adc	r24, r24

00000750 <.Loc.12>:
 750:	99 1f       	adc	r25, r25

00000752 <.Loc.13>:
 752:	5a 95       	dec	r21

00000754 <.Loc.14>:
 754:	a9 f7       	brne	.-22     	; 0x740 <__udivmodhi4_loop>

00000756 <.Loc.15>:
 756:	80 95       	com	r24

00000758 <.Loc.16>:
 758:	90 95       	com	r25

0000075a <.Loc.17>:
 75a:	bc 01       	movw	r22, r24

0000075c <.Loc.18>:
 75c:	cd 01       	movw	r24, r26

0000075e <.Loc.19>:
 75e:	08 95       	ret

00000760 <__divmodhi4>:
 760:	97 fb       	bst	r25, 7

00000762 <.Loc.1>:
 762:	07 2e       	mov	r0, r23

00000764 <.Loc.2>:
 764:	16 f4       	brtc	.+4      	; 0x76a <.L0^B1>

00000766 <.Loc.3>:
 766:	00 94       	com	r0

00000768 <.Loc.4>:
 768:	07 d0       	rcall	.+14     	; 0x778 <__divmodhi4_neg1>

0000076a <.L0^B1>:
 76a:	77 fd       	sbrc	r23, 7

0000076c <.Loc.6>:
 76c:	09 d0       	rcall	.+18     	; 0x780 <__divmodhi4_neg2>

0000076e <.Loc.7>:
 76e:	0e 94 9c 03 	call	0x738	; 0x738 <__udivmodhi4>

00000772 <.Loc.8>:
 772:	07 fc       	sbrc	r0, 7

00000774 <.Loc.9>:
 774:	05 d0       	rcall	.+10     	; 0x780 <__divmodhi4_neg2>

00000776 <.Loc.10>:
 776:	3e f4       	brtc	.+14     	; 0x786 <__divmodhi4_exit>

00000778 <__divmodhi4_neg1>:
 778:	90 95       	com	r25

0000077a <.Loc.12>:
 77a:	81 95       	neg	r24

0000077c <.Loc.13>:
 77c:	9f 4f       	sbci	r25, 0xFF	; 255

0000077e <.Loc.14>:
 77e:	08 95       	ret

00000780 <__divmodhi4_neg2>:
 780:	70 95       	com	r23

00000782 <.Loc.16>:
 782:	61 95       	neg	r22

00000784 <.Loc.17>:
 784:	7f 4f       	sbci	r23, 0xFF	; 255

00000786 <__divmodhi4_exit>:
 786:	08 95       	ret

00000788 <__udivmodsi4>:
 788:	a1 e2       	ldi	r26, 0x21	; 33

0000078a <.Loc.1>:
 78a:	1a 2e       	mov	r1, r26

0000078c <.Loc.2>:
 78c:	aa 1b       	sub	r26, r26

0000078e <.Loc.3>:
 78e:	bb 1b       	sub	r27, r27

00000790 <.Loc.4>:
 790:	fd 01       	movw	r30, r26

00000792 <.Loc.5>:
 792:	0d c0       	rjmp	.+26     	; 0x7ae <__udivmodsi4_ep>

00000794 <__udivmodsi4_loop>:
 794:	aa 1f       	adc	r26, r26

00000796 <.Loc.7>:
 796:	bb 1f       	adc	r27, r27

00000798 <.Loc.8>:
 798:	ee 1f       	adc	r30, r30

0000079a <.Loc.9>:
 79a:	ff 1f       	adc	r31, r31

0000079c <.Loc.10>:
 79c:	a2 17       	cp	r26, r18

0000079e <.Loc.11>:
 79e:	b3 07       	cpc	r27, r19

000007a0 <.Loc.12>:
 7a0:	e4 07       	cpc	r30, r20

000007a2 <.Loc.13>:
 7a2:	f5 07       	cpc	r31, r21

000007a4 <.Loc.14>:
 7a4:	20 f0       	brcs	.+8      	; 0x7ae <__udivmodsi4_ep>

000007a6 <.Loc.15>:
 7a6:	a2 1b       	sub	r26, r18

000007a8 <.Loc.16>:
 7a8:	b3 0b       	sbc	r27, r19

000007aa <.Loc.17>:
 7aa:	e4 0b       	sbc	r30, r20

000007ac <.Loc.18>:
 7ac:	f5 0b       	sbc	r31, r21

000007ae <__udivmodsi4_ep>:
 7ae:	66 1f       	adc	r22, r22

000007b0 <.Loc.20>:
 7b0:	77 1f       	adc	r23, r23

000007b2 <.Loc.21>:
 7b2:	88 1f       	adc	r24, r24

000007b4 <.Loc.22>:
 7b4:	99 1f       	adc	r25, r25

000007b6 <.Loc.23>:
 7b6:	1a 94       	dec	r1

000007b8 <.Loc.24>:
 7b8:	69 f7       	brne	.-38     	; 0x794 <__udivmodsi4_loop>

000007ba <.Loc.25>:
 7ba:	60 95       	com	r22

000007bc <.Loc.26>:
 7bc:	70 95       	com	r23

000007be <.Loc.27>:
 7be:	80 95       	com	r24

000007c0 <.Loc.28>:
 7c0:	90 95       	com	r25

000007c2 <.Loc.29>:
 7c2:	9b 01       	movw	r18, r22

000007c4 <.Loc.30>:
 7c4:	ac 01       	movw	r20, r24

000007c6 <.Loc.31>:
 7c6:	bd 01       	movw	r22, r26

000007c8 <.Loc.32>:
 7c8:	cf 01       	movw	r24, r30

000007ca <.Loc.33>:
 7ca:	08 95       	ret

000007cc <__divmodsi4>:
 7cc:	05 2e       	mov	r0, r21

000007ce <.Loc.1>:
 7ce:	97 fb       	bst	r25, 7

000007d0 <.Loc.2>:
 7d0:	1e f4       	brtc	.+6      	; 0x7d8 <.L0^B1>

000007d2 <.Loc.3>:
 7d2:	00 94       	com	r0

000007d4 <.Loc.4>:
 7d4:	0e 94 fd 03 	call	0x7fa	; 0x7fa <__negsi2>

000007d8 <.L0^B1>:
 7d8:	57 fd       	sbrc	r21, 7

000007da <.Loc.6>:
 7da:	07 d0       	rcall	.+14     	; 0x7ea <__divmodsi4_neg2>

000007dc <.Loc.7>:
 7dc:	0e 94 c4 03 	call	0x788	; 0x788 <__udivmodsi4>

000007e0 <.Loc.8>:
 7e0:	07 fc       	sbrc	r0, 7

000007e2 <.Loc.9>:
 7e2:	03 d0       	rcall	.+6      	; 0x7ea <__divmodsi4_neg2>

000007e4 <.Loc.10>:
 7e4:	4e f4       	brtc	.+18     	; 0x7f8 <__divmodsi4_exit>

000007e6 <.Loc.11>:
 7e6:	0c 94 fd 03 	jmp	0x7fa	; 0x7fa <__negsi2>

000007ea <__divmodsi4_neg2>:
 7ea:	50 95       	com	r21

000007ec <.Loc.13>:
 7ec:	40 95       	com	r20

000007ee <.Loc.14>:
 7ee:	30 95       	com	r19

000007f0 <.Loc.15>:
 7f0:	21 95       	neg	r18

000007f2 <.Loc.16>:
 7f2:	3f 4f       	sbci	r19, 0xFF	; 255

000007f4 <.Loc.17>:
 7f4:	4f 4f       	sbci	r20, 0xFF	; 255

000007f6 <.Loc.18>:
 7f6:	5f 4f       	sbci	r21, 0xFF	; 255

000007f8 <__divmodsi4_exit>:
 7f8:	08 95       	ret

000007fa <__negsi2>:
 7fa:	90 95       	com	r25
 7fc:	80 95       	com	r24
 7fe:	70 95       	com	r23
 800:	61 95       	neg	r22
 802:	7f 4f       	sbci	r23, 0xFF	; 255
 804:	8f 4f       	sbci	r24, 0xFF	; 255
 806:	9f 4f       	sbci	r25, 0xFF	; 255

00000808 <.Loc.1>:
 808:	08 95       	ret

0000080a <__usmulhisi3>:
 80a:	0e 94 4e 04 	call	0x89c	; 0x89c <__umulhisi3>

0000080e <__usmulhisi3_tail>:
 80e:	b7 ff       	sbrs	r27, 7

00000810 <.Loc.2>:
 810:	08 95       	ret

00000812 <.Loc.3>:
 812:	82 1b       	sub	r24, r18

00000814 <.Loc.4>:
 814:	93 0b       	sbc	r25, r19

00000816 <.Loc.5>:
 816:	08 95       	ret

00000818 <__muluhisi3>:
 818:	0e 94 4e 04 	call	0x89c	; 0x89c <__umulhisi3>

0000081c <.Loc.1>:
 81c:	a5 9f       	mul	r26, r21

0000081e <.Loc.2>:
 81e:	90 0d       	add	r25, r0

00000820 <.Loc.3>:
 820:	b4 9f       	mul	r27, r20

00000822 <.Loc.4>:
 822:	90 0d       	add	r25, r0

00000824 <.Loc.5>:
 824:	a4 9f       	mul	r26, r20

00000826 <.Loc.6>:
 826:	80 0d       	add	r24, r0

00000828 <.Loc.7>:
 828:	91 1d       	adc	r25, r1

0000082a <.Loc.8>:
 82a:	11 24       	eor	r1, r1

0000082c <.Loc.9>:
 82c:	08 95       	ret

0000082e <__prologue_saves__>:
 82e:	2f 92       	push	r2

00000830 <.Loc.1>:
 830:	3f 92       	push	r3

00000832 <.Loc.2>:
 832:	4f 92       	push	r4

00000834 <.Loc.3>:
 834:	5f 92       	push	r5

00000836 <.Loc.4>:
 836:	6f 92       	push	r6

00000838 <.Loc.5>:
 838:	7f 92       	push	r7

0000083a <.Loc.6>:
 83a:	8f 92       	push	r8

0000083c <.Loc.7>:
 83c:	9f 92       	push	r9

0000083e <.Loc.8>:
 83e:	af 92       	push	r10

00000840 <.Loc.9>:
 840:	bf 92       	push	r11

00000842 <.Loc.10>:
 842:	cf 92       	push	r12

00000844 <.Loc.11>:
 844:	df 92       	push	r13

00000846 <.Loc.12>:
 846:	ef 92       	push	r14

00000848 <.Loc.13>:
 848:	ff 92       	push	r15

0000084a <.Loc.14>:
 84a:	0f 93       	push	r16

0000084c <.Loc.15>:
 84c:	1f 93       	push	r17

0000084e <.Loc.16>:
 84e:	cf 93       	push	r28

00000850 <.Loc.17>:
 850:	df 93       	push	r29

00000852 <.Loc.18>:
 852:	cd b7       	in	r28, 0x3d	; 61

00000854 <.Loc.19>:
 854:	de b7       	in	r29, 0x3e	; 62

00000856 <.Loc.20>:
 856:	ca 1b       	sub	r28, r26

00000858 <.Loc.21>:
 858:	db 0b       	sbc	r29, r27

0000085a <.Loc.22>:
 85a:	0f b6       	in	r0, 0x3f	; 63

0000085c <.Loc.23>:
 85c:	f8 94       	cli

0000085e <.Loc.24>:
 85e:	de bf       	out	0x3e, r29	; 62

00000860 <.Loc.25>:
 860:	0f be       	out	0x3f, r0	; 63

00000862 <.Loc.26>:
 862:	cd bf       	out	0x3d, r28	; 61

00000864 <.Loc.27>:
 864:	09 94       	ijmp

00000866 <__epilogue_restores__>:
 866:	2a 88       	ldd	r2, Y+18	; 0x12

00000868 <.Loc.1>:
 868:	39 88       	ldd	r3, Y+17	; 0x11

0000086a <.Loc.2>:
 86a:	48 88       	ldd	r4, Y+16	; 0x10

0000086c <.Loc.3>:
 86c:	5f 84       	ldd	r5, Y+15	; 0x0f

0000086e <.Loc.4>:
 86e:	6e 84       	ldd	r6, Y+14	; 0x0e

00000870 <.Loc.5>:
 870:	7d 84       	ldd	r7, Y+13	; 0x0d

00000872 <.Loc.6>:
 872:	8c 84       	ldd	r8, Y+12	; 0x0c

00000874 <.Loc.7>:
 874:	9b 84       	ldd	r9, Y+11	; 0x0b

00000876 <.Loc.8>:
 876:	aa 84       	ldd	r10, Y+10	; 0x0a

00000878 <.Loc.9>:
 878:	b9 84       	ldd	r11, Y+9	; 0x09

0000087a <.Loc.10>:
 87a:	c8 84       	ldd	r12, Y+8	; 0x08

0000087c <.Loc.11>:
 87c:	df 80       	ldd	r13, Y+7	; 0x07

0000087e <.Loc.12>:
 87e:	ee 80       	ldd	r14, Y+6	; 0x06

00000880 <.Loc.13>:
 880:	fd 80       	ldd	r15, Y+5	; 0x05

00000882 <.Loc.14>:
 882:	0c 81       	ldd	r16, Y+4	; 0x04

00000884 <.Loc.15>:
 884:	1b 81       	ldd	r17, Y+3	; 0x03

00000886 <.Loc.16>:
 886:	aa 81       	ldd	r26, Y+2	; 0x02

00000888 <.Loc.17>:
 888:	b9 81       	ldd	r27, Y+1	; 0x01

0000088a <.Loc.18>:
 88a:	ce 0f       	add	r28, r30

0000088c <.Loc.19>:
 88c:	d1 1d       	adc	r29, r1

0000088e <.Loc.20>:
 88e:	0f b6       	in	r0, 0x3f	; 63

00000890 <.Loc.21>:
 890:	f8 94       	cli

00000892 <.Loc.22>:
 892:	de bf       	out	0x3e, r29	; 62

00000894 <.Loc.23>:
 894:	0f be       	out	0x3f, r0	; 63

00000896 <.Loc.24>:
 896:	cd bf       	out	0x3d, r28	; 61

00000898 <.Loc.25>:
 898:	ed 01       	movw	r28, r26

0000089a <.Loc.26>:
 89a:	08 95       	ret

0000089c <__umulhisi3>:
 89c:	a2 9f       	mul	r26, r18

0000089e <.Loc.1>:
 89e:	b0 01       	movw	r22, r0

000008a0 <.Loc.2>:
 8a0:	b3 9f       	mul	r27, r19

000008a2 <.Loc.3>:
 8a2:	c0 01       	movw	r24, r0

000008a4 <.Loc.4>:
 8a4:	a3 9f       	mul	r26, r19

000008a6 <.Loc.5>:
 8a6:	70 0d       	add	r23, r0

000008a8 <.Loc.6>:
 8a8:	81 1d       	adc	r24, r1

000008aa <.Loc.7>:
 8aa:	11 24       	eor	r1, r1

000008ac <.Loc.8>:
 8ac:	91 1d       	adc	r25, r1

000008ae <.Loc.9>:
 8ae:	b2 9f       	mul	r27, r18

000008b0 <.Loc.10>:
 8b0:	70 0d       	add	r23, r0

000008b2 <.Loc.11>:
 8b2:	81 1d       	adc	r24, r1

000008b4 <.Loc.12>:
 8b4:	11 24       	eor	r1, r1

000008b6 <.Loc.13>:
 8b6:	91 1d       	adc	r25, r1

000008b8 <.Loc.14>:
 8b8:	08 95       	ret

000008ba <_exit>:
 8ba:	f8 94       	cli

000008bc <__stop_program>:
 8bc:	ff cf       	rjmp	.-2      	; 0x8bc <__stop_program>
